

Microchip MPLAB XC8 Assembler V2.45 build 20230818022343 
                                                                                               Fri Jan 12 21:22:41 2024

Microchip MPLAB XC8 C Compiler v2.45 (Free license) build 20230818022343 Og1 
     1                           	processor	18F4620
     2                           	fnconf	rparam,??,?,0
     3                           	pagewidth 120
     4                           	opt	flic
     5                           	psect	idataCOMRAM,global,class=CODE,delta=1,noexec
     6                           	psect	smallconst,global,reloc=2,class=SMALLCONST,delta=1,noexec
     7                           	psect	cinit,global,reloc=2,class=CODE,delta=1
     8                           	psect	bssCOMRAM,global,class=COMRAM,space=1,delta=1,lowdata,noexec
     9                           	psect	dataCOMRAM,global,class=COMRAM,space=1,delta=1,lowdata,noexec
    10                           	psect	cstackCOMRAM,global,class=COMRAM,space=1,delta=1,lowdata,noexec
    11                           	psect	text0,global,reloc=2,class=CODE,delta=1
    12                           	psect	text1,global,reloc=2,class=CODE,delta=1
    13                           	psect	text2,global,reloc=2,class=CODE,delta=1
    14                           	psect	text3,global,reloc=2,class=CODE,delta=1
    15                           	psect	text4,global,reloc=2,class=CODE,delta=1
    16                           	psect	text5,global,reloc=2,class=CODE,delta=1
    17                           	psect	intcode,global,reloc=2,class=CODE,delta=1
    18                           	psect	intcode_body,global,reloc=2,class=CODE,delta=1
    19                           	psect	text7,global,reloc=2,class=CODE,delta=1
    20                           	psect	text8,global,reloc=2,class=CODE,delta=1
    21                           	psect	text9,global,reloc=2,class=CODE,delta=1
    22                           	psect	text10,global,reloc=2,class=CODE,delta=1
    23                           	psect	text11,global,reloc=2,class=CODE,delta=1
    24                           	psect	text12,global,reloc=2,class=CODE,delta=1
    25                           	psect	text13,global,reloc=2,class=CODE,delta=1
    26                           	psect	text14,global,reloc=2,class=CODE,delta=1
    27                           	psect	text15,global,reloc=2,class=CODE,delta=1
    28                           	psect	text16,global,reloc=2,class=CODE,delta=1
    29                           	psect	intsave_regs,global,class=BIGRAM,space=1,delta=1,noexec
    30                           	psect	text17,global,reloc=2,class=CODE,delta=1
    31                           	psect	rparam,global,class=COMRAM,space=1,delta=1,noexec
    32                           	psect	temp,global,ovrld,common,class=COMRAM,space=1,delta=1
    33                           	psect	config,global,abs,ovrld,class=CONFIG,space=4,delta=1,noexec
    34   000000                     
    35                           ; Generated 23/03/2023 GMT
    36                           ; 
    37                           ; Copyright © 2023, Microchip Technology Inc. and its subsidiaries ("Microchip")
    38                           ; All rights reserved.
    39                           ; 
    40                           ; This software is developed by Microchip Technology Inc. and its subsidiaries ("Microch
      +                          ip").
    41                           ; 
    42                           ; Redistribution and use in source and binary forms, with or without modification, are
    43                           ; permitted provided that the following conditions are met:
    44                           ; 
    45                           ;     1. Redistributions of source code must retain the above copyright notice, this lis
      +                          t of
    46                           ;        conditions and the following disclaimer.
    47                           ; 
    48                           ;     2. Redistributions in binary form must reproduce the above copyright notice, this 
      +                          list
    49                           ;        of conditions and the following disclaimer in the documentation and/or other
    50                           ;        materials provided with the distribution. Publication is not required when
    51                           ;        this file is used in an embedded application.
    52                           ; 
    53                           ;     3. Microchip's name may not be used to endorse or promote products derived from th
      +                          is
    54                           ;        software without specific prior written permission.
    55                           ; 
    56                           ; THIS SOFTWARE IS PROVIDED BY MICROCHIP "AS IS" AND ANY EXPRESS OR IMPLIED WARRANTIES,
    57                           ; INCLUDING, BUT NOT LIMITED TO, THE IMPLIED WARRANTIES OF MERCHANTABILITY AND FITNESS F
      +                          OR
    58                           ; PURPOSE ARE DISCLAIMED.  IN NO EVENT SHALL MICROCHIP BE LIABLE FOR ANY DIRECT, INDIREC
      +                          T,
    59                           ; INCIDENTAL, SPECIAL, EXEMPLARY, OR CONSEQUENTIAL DAMAGES (INCLUDING BUT NOT LIMITED TO
    60                           ; PROCUREMENT OF SUBSTITUTE GOODS OR SERVICES; LOSS OF USE, DATA OR PROFITS; OR BUSINESS
    61                           ; INTERRUPTION) HOWSOEVER CAUSED AND ON ANY THEORY OF LIABILITY, WHETHER IN CONTRACT, ST
      +                          RICT
    62                           ; LIABILITY, OR TORT (INCLUDING NEGLIGENCE OR OTHERWISE) ARISING IN ANY WAY OUT OF THE U
      +                          SE OF
    63                           ; THIS SOFTWARE, EVEN IF ADVISED OF THE POSSIBILITY OF SUCH DAMAGE.
    64                           ; 
    65                           ; 
    66                           ; Code-generator required, PIC18F4620 Definitions
    67                           ; 
    68                           ; SFR Addresses
    69   000000                     
    70                           	psect	idataCOMRAM
    71   001A34                     __pidataCOMRAM:
    72                           	callstack 0
    73                           
    74                           ;initializer for _port_regs
    75   001A34  80                 	db	128
    76   001A35  0F                 	db	15
    77   001A36  81                 	db	129
    78   001A37  0F                 	db	15
    79   001A38  82                 	db	130
    80   001A39  0F                 	db	15
    81   001A3A  83                 	db	131
    82   001A3B  0F                 	db	15
    83   001A3C  84                 	db	132
    84   001A3D  0F                 	db	15
    85                           
    86                           ;initializer for _lat_regs
    87   001A3E  89                 	db	137
    88   001A3F  0F                 	db	15
    89   001A40  8A                 	db	138
    90   001A41  0F                 	db	15
    91   001A42  8B                 	db	139
    92   001A43  0F                 	db	15
    93   001A44  8C                 	db	140
    94   001A45  0F                 	db	15
    95   001A46  8D                 	db	141
    96   001A47  0F                 	db	15
    97                           
    98                           ;initializer for _tris_regs
    99   001A48  92                 	db	146
   100   001A49  0F                 	db	15
   101   001A4A  93                 	db	147
   102   001A4B  0F                 	db	15
   103   001A4C  94                 	db	148
   104   001A4D  0F                 	db	15
   105   001A4E  95                 	db	149
   106   001A4F  0F                 	db	15
   107   001A50  96                 	db	150
   108   001A51  0F                 	db	15
   109                           
   110                           ;initializer for _RB7_Flag
   111   001A52  01                 	db	1
   112                           
   113                           ;initializer for _RB6_Flag
   114   001A53  01                 	db	1
   115                           
   116                           ;initializer for _RB5_Flag
   117   001A54  01                 	db	1
   118                           
   119                           ;initializer for _RB4_Flag
   120   001A55  01                 	db	1
   121                           
   122                           ;initializer for _RB4_app
   123   001A56  76                 	db	low _sssss
   124   001A57  1A                 	db	high _sssss
   125   001A58  76                 	db	low _sssss
   126   001A59  1A                 	db	high _sssss
   127   001A5A  61                 	db	97
   128   001A5B  01                 	db	1
   129                           
   130                           ;initializer for _led4
   131   001A5C  02                 	db	2
   132   000000                     _INTCON2bits	set	4081
   133   000000                     _PORTBbits	set	3969
   134   000000                     _PORTE	set	3972
   135   000000                     _PORTD	set	3971
   136   000000                     _PORTC	set	3970
   137   000000                     _PORTB	set	3969
   138   000000                     _PORTA	set	3968
   139   000000                     _LATA	set	3977
   140   000000                     _TRISA	set	3986
   141   000000                     _INTCON3bits	set	4080
   142   000000                     _INTCONbits	set	4082
   143   000000                     _TRISE	set	3990
   144   000000                     _TRISD	set	3989
   145   000000                     _TRISC	set	3988
   146   000000                     _TRISB	set	3987
   147   000000                     _LATE	set	3981
   148   000000                     _LATD	set	3980
   149   000000                     _LATC	set	3979
   150   000000                     _LATB	set	3978
   151                           
   152                           	psect	smallconst
   153   001000                     __psmallconst:
   154                           	callstack 0
   155   001000  00                 	db	0
   156   001001                     STR_1:
   157   001001  25                 	db	37
   158   001002  69                 	db	105	;'i'
   159   001003  00                 	db	0
   160   001004  00                 	db	0	; dummy byte at the end
   161   000000                     
   162                           ; #config settings
   163                           
   164                           	psect	cinit
   165   0019FE                     __pcinit:
   166                           	callstack 0
   167   0019FE                     start_initialization:
   168                           	callstack 0
   169   0019FE                     __initialization:
   170                           	callstack 0
   171                           
   172                           ; Initialize objects allocated to COMRAM (41 bytes)
   173                           ; load TBLPTR registers with __pidataCOMRAM
   174   0019FE  0E34               	movlw	low __pidataCOMRAM
   175   001A00  6EF6               	movwf	tblptrl,c
   176   001A02  0E1A               	movlw	high __pidataCOMRAM
   177   001A04  6EF7               	movwf	tblptrh,c
   178   001A06  0E00               	movlw	low (__pidataCOMRAM shr (0+16))
   179   001A08  6EF8               	movwf	tblptru,c
   180   001A0A  EE00  F001         	lfsr	0,__pdataCOMRAM
   181   001A0E  EE10 F029          	lfsr	1,41
   182   001A12                     copy_data0:
   183   001A12  0009               	tblrd		*+
   184   001A14  CFF5 FFEE          	movff	tablat,postinc0
   185   001A18  50E5               	movf	postdec1,w,c
   186   001A1A  50E1               	movf	fsr1l,w,c
   187   001A1C  E1FA               	bnz	copy_data0
   188                           
   189                           ; Clear objects allocated to COMRAM (29 bytes)
   190   001A1E  EE00  F04F         	lfsr	0,__pbssCOMRAM
   191   001A22  0E1D               	movlw	29
   192   001A24                     clear_0:
   193   001A24  6AEE               	clrf	postinc0,c
   194   001A26  06E8               	decf	wreg,f,c
   195   001A28  E1FD               	bnz	clear_0
   196   001A2A                     end_of_initialization:
   197                           	callstack 0
   198   001A2A                     __end_of__initialization:
   199                           	callstack 0
   200   001A2A  906C               	bcf	int$flags,0,c	;clear compiler interrupt flag (level 1)
   201   001A2C  926C               	bcf	int$flags,1,c	;clear compiler interrupt flag (level 2)
   202   001A2E  0100               	movlb	0
   203   001A30  EF2F  F00D         	goto	_main	;jump to C main() function
   204                           
   205                           	psect	bssCOMRAM
   206   00004F                     __pbssCOMRAM:
   207                           	callstack 0
   208   00004F                     _RB7_CallBack_LOW:
   209                           	callstack 0
   210   00004F                     	ds	2
   211   000051                     _RB6_CallBack_LOW:
   212                           	callstack 0
   213   000051                     	ds	2
   214   000053                     _RB5_CallBack_LOW:
   215                           	callstack 0
   216   000053                     	ds	2
   217   000055                     _RB4_CallBack_LOW:
   218                           	callstack 0
   219   000055                     	ds	2
   220   000057                     _RB7_CallBack_HIGH:
   221                           	callstack 0
   222   000057                     	ds	2
   223   000059                     _RB6_CallBack_HIGH:
   224                           	callstack 0
   225   000059                     	ds	2
   226   00005B                     _RB5_CallBack_HIGH:
   227                           	callstack 0
   228   00005B                     	ds	2
   229   00005D                     _RB4_CallBack_HIGH:
   230                           	callstack 0
   231   00005D                     	ds	2
   232   00005F                     _INT2_CALBACK:
   233                           	callstack 0
   234   00005F                     	ds	2
   235   000061                     _INT1_CALBACK:
   236                           	callstack 0
   237   000061                     	ds	2
   238   000063                     _INT0_CALBACK:
   239                           	callstack 0
   240   000063                     	ds	2
   241   000065                     relayOFF@F3056:
   242                           	callstack 0
   243   000065                     	ds	1
   244   000066                     relayON@F3051:
   245                           	callstack 0
   246   000066                     	ds	1
   247   000067                     relayInit@F3046:
   248                           	callstack 0
   249   000067                     	ds	1
   250   000068                     led_toggle@F3068:
   251                           	callstack 0
   252   000068                     	ds	1
   253   000069                     led_off@F3063:
   254                           	callstack 0
   255   000069                     	ds	1
   256   00006A                     led_on@F3058:
   257                           	callstack 0
   258   00006A                     	ds	1
   259   00006B                     led_init@F3053:
   260                           	callstack 0
   261   00006B                     	ds	1
   262                           
   263                           	psect	dataCOMRAM
   264   000001                     __pdataCOMRAM:
   265                           	callstack 0
   266   000001                     _port_regs:
   267                           	callstack 0
   268   000001                     	ds	10
   269   00000B                     _lat_regs:
   270                           	callstack 0
   271   00000B                     	ds	10
   272   000015                     _tris_regs:
   273                           	callstack 0
   274   000015                     	ds	10
   275   00001F                     _RB7_Flag:
   276                           	callstack 0
   277   00001F                     	ds	1
   278   000020                     _RB6_Flag:
   279                           	callstack 0
   280   000020                     	ds	1
   281   000021                     _RB5_Flag:
   282                           	callstack 0
   283   000021                     	ds	1
   284   000022                     _RB4_Flag:
   285                           	callstack 0
   286   000022                     	ds	1
   287   000023                     _RB4_app:
   288                           	callstack 0
   289   000023                     	ds	6
   290   000029                     _led4:
   291                           	callstack 0
   292   000029                     	ds	1
   293                           
   294                           	psect	cstackCOMRAM
   295   00002A                     __pcstackCOMRAM:
   296                           	callstack 0
   297   00002A                     i2gpio_pin_write_logic@pin_config:
   298                           	callstack 0
   299                           
   300                           ; 1 bytes @ 0x0
   301   00002A                     	ds	1
   302   00002B                     i2gpio_pin_write_logic@logic:
   303                           	callstack 0
   304                           
   305                           ; 1 bytes @ 0x1
   306   00002B                     	ds	1
   307   00002C                     ??i2_gpio_pin_write_logic:
   308                           
   309                           ; 1 bytes @ 0x2
   310   00002C                     	ds	5
   311   000031                     i2gpio_pin_write_logic@ret:
   312                           	callstack 0
   313                           
   314                           ; 1 bytes @ 0x7
   315   000031                     	ds	1
   316   000032                     led_on@led:
   317                           	callstack 0
   318                           
   319                           ; 1 bytes @ 0x8
   320   000032                     	ds	1
   321   000033                     ??_led_on:
   322                           
   323                           ; 1 bytes @ 0x9
   324   000033                     	ds	1
   325   000034                     led_on@pin_obj:
   326                           	callstack 0
   327                           
   328                           ; 1 bytes @ 0xA
   329   000034                     	ds	1
   330   000035                     RB4_ISR@src:
   331                           	callstack 0
   332   000035                     RB5_ISR@src:
   333                           	callstack 0
   334   000035                     RB6_ISR@src:
   335                           	callstack 0
   336   000035                     RB7_ISR@src:
   337                           	callstack 0
   338                           
   339                           ; 1 bytes @ 0xB
   340   000035                     	ds	1
   341   000036                     ??_InterruptManager:
   342                           
   343                           ; 1 bytes @ 0xC
   344   000036                     	ds	6
   345   00003C                     gpio_pin_direction_initialize@pin_config:
   346                           	callstack 0
   347   00003C                     gpio_pin_write_logic@pin_config:
   348                           	callstack 0
   349                           
   350                           ; 1 bytes @ 0x12
   351   00003C                     	ds	1
   352   00003D                     ??_gpio_pin_direction_initialize:
   353   00003D                     gpio_pin_write_logic@logic:
   354                           	callstack 0
   355                           
   356                           ; 1 bytes @ 0x13
   357   00003D                     	ds	1
   358   00003E                     ??_gpio_pin_write_logic:
   359                           
   360                           ; 1 bytes @ 0x14
   361   00003E                     	ds	4
   362   000042                     gpio_pin_direction_initialize@ret:
   363                           	callstack 0
   364                           
   365                           ; 1 bytes @ 0x18
   366   000042                     	ds	1
   367   000043                     gpio_pin_write_logic@ret:
   368                           	callstack 0
   369   000043                     Interrupt_RBx_Init@obj:
   370                           	callstack 0
   371                           
   372                           ; 1 bytes @ 0x19
   373   000043                     	ds	1
   374   000044                     ??_Interrupt_RBx_Init:
   375   000044                     gpio_pin_initialize@pin_config:
   376                           	callstack 0
   377                           
   378                           ; 1 bytes @ 0x1A
   379   000044                     	ds	1
   380   000045                     gpio_pin_initialize@ret:
   381                           	callstack 0
   382                           
   383                           ; 1 bytes @ 0x1B
   384   000045                     	ds	1
   385   000046                     led_init@led:
   386                           	callstack 0
   387   000046                     Interrupt_RBx_Init@ret:
   388                           	callstack 0
   389                           
   390                           ; 1 bytes @ 0x1C
   391   000046                     	ds	1
   392   000047                     ??_led_init:
   393                           
   394                           ; 1 bytes @ 0x1D
   395   000047                     	ds	1
   396   000048                     led_init@ret:
   397                           	callstack 0
   398                           
   399                           ; 1 bytes @ 0x1E
   400   000048                     	ds	1
   401   000049                     led_init@pin_obj:
   402                           	callstack 0
   403                           
   404                           ; 1 bytes @ 0x1F
   405   000049                     	ds	1
   406   00004A                     
   407                           ; 2 bytes @ 0x20
   408   00004A                     	ds	2
   409   00004C                     
   410                           ; 3 bytes @ 0x22
   411   00004C                     	ds	3
   412   00004F                     
   413                           ; 1 bytes @ 0x25
   414 ;;
   415 ;;Main: autosize = 0, tempsize = 0, incstack = 0, save=0
   416 ;;
   417 ;; *************** function _main *****************
   418 ;; Defined at:
   419 ;;		line 34 in file "Application.c"
   420 ;; Parameters:    Size  Location     Type
   421 ;;  argc            2   32[COMRAM] int 
   422 ;;  argv            3   34[COMRAM] PTR PTR unsigned char 
   423 ;; Auto vars:     Size  Location     Type
   424 ;;  ret             1    0        unsigned char 
   425 ;; Return value:  Size  Location     Type
   426 ;;                  2   32[COMRAM] int 
   427 ;; Registers used:
   428 ;;		wreg, fsr2l, fsr2h, status,2, status,0, prodl, prodh, cstack
   429 ;; Tracked objects:
   430 ;;		On entry : 0/0
   431 ;;		On exit  : 0/0
   432 ;;		Unchanged: 0/0
   433 ;; Data sizes:     COMRAM   BANK0   BANK1   BANK2   BANK3   BANK4   BANK5   BANK6   BANK7   BANK8   BANK9  BANK10  BANK1
      +1  BANK12  BANK13  BANK14  BANK15
   434 ;;      Params:         5       0       0       0       0       0       0       0       0       0       0       0       
      +0       0       0       0       0
   435 ;;      Locals:         0       0       0       0       0       0       0       0       0       0       0       0       
      +0       0       0       0       0
   436 ;;      Temps:          0       0       0       0       0       0       0       0       0       0       0       0       
      +0       0       0       0       0
   437 ;;      Totals:         5       0       0       0       0       0       0       0       0       0       0       0       
      +0       0       0       0       0
   438 ;;Total ram usage:        5 bytes
   439 ;; Hardware stack levels required when called: 8
   440 ;; This function calls:
   441 ;;		_Interrupt_RBx_Init
   442 ;;		_led_init
   443 ;; This function is called by:
   444 ;;		Startup code after reset
   445 ;; This function uses a non-reentrant model
   446 ;;
   447                           
   448                           	psect	text0
   449   001A5E                     __ptext0:
   450                           	callstack 0
   451   001A5E                     _main:
   452                           	callstack 23
   453   001A5E  0E23               	movlw	low _RB4_app
   454   001A60  6E43               	movwf	Interrupt_RBx_Init@obj^0,c
   455   001A62  EC5E  F009         	call	_Interrupt_RBx_Init	;wreg free
   456   001A66  0E29               	movlw	low _led4
   457   001A68  6E46               	movwf	led_init@led^0,c
   458   001A6A  EC70  F00C         	call	_led_init	;wreg free
   459   001A6E                     l678:
   460   001A6E  EF37  F00D         	goto	l678
   461   001A72  EF07  F000         	goto	start
   462   001A76                     __end_of_main:
   463                           	callstack 0
   464                           
   465 ;; *************** function _led_init *****************
   466 ;; Defined at:
   467 ;;		line 9 in file "ECU_Layer/LED/ecu_led.c"
   468 ;; Parameters:    Size  Location     Type
   469 ;;  led             1   28[COMRAM] PTR const struct .
   470 ;;		 -> led4(1), 
   471 ;; Auto vars:     Size  Location     Type
   472 ;;  pin_obj         1   31[COMRAM] struct .
   473 ;;  ret             1   30[COMRAM] unsigned char 
   474 ;; Return value:  Size  Location     Type
   475 ;;                  1    wreg      unsigned char 
   476 ;; Registers used:
   477 ;;		wreg, fsr2l, fsr2h, status,2, status,0, prodl, prodh, cstack
   478 ;; Tracked objects:
   479 ;;		On entry : 0/0
   480 ;;		On exit  : 0/0
   481 ;;		Unchanged: 0/0
   482 ;; Data sizes:     COMRAM   BANK0   BANK1   BANK2   BANK3   BANK4   BANK5   BANK6   BANK7   BANK8   BANK9  BANK10  BANK1
      +1  BANK12  BANK13  BANK14  BANK15
   483 ;;      Params:         1       0       0       0       0       0       0       0       0       0       0       0       
      +0       0       0       0       0
   484 ;;      Locals:         2       0       0       0       0       0       0       0       0       0       0       0       
      +0       0       0       0       0
   485 ;;      Temps:          1       0       0       0       0       0       0       0       0       0       0       0       
      +0       0       0       0       0
   486 ;;      Totals:         4       0       0       0       0       0       0       0       0       0       0       0       
      +0       0       0       0       0
   487 ;;Total ram usage:        4 bytes
   488 ;; Hardware stack levels used: 1
   489 ;; Hardware stack levels required when called: 7
   490 ;; This function calls:
   491 ;;		_gpio_pin_initialize
   492 ;; This function is called by:
   493 ;;		_main
   494 ;; This function uses a non-reentrant model
   495 ;;
   496                           
   497                           	psect	text1
   498   0018E0                     __ptext1:
   499                           	callstack 0
   500   0018E0                     _led_init:
   501                           	callstack 23
   502   0018E0                     
   503                           ;ECU_Layer/LED/ecu_led.c: 12:     if(((void*)0) == led){
   504   0018E0  5046               	movf	led_init@led^0,w,c
   505   0018E2  A4D8               	btfss	status,2,c
   506   0018E4  EF76  F00C         	goto	u2171
   507   0018E8  EF78  F00C         	goto	u2170
   508   0018EC                     u2171:
   509   0018EC  EF7C  F00C         	goto	l280
   510   0018F0                     u2170:
   511   0018F0                     
   512                           ;ECU_Layer/LED/ecu_led.c: 13:         ret = (STD_ReturnType) 0x00;
   513   0018F0  0E00               	movlw	0
   514   0018F2  6E48               	movwf	led_init@ret^0,c
   515                           
   516                           ;ECU_Layer/LED/ecu_led.c: 14:     }else{
   517   0018F4  EFA7  F00C         	goto	l2982
   518   0018F8                     l280:
   519                           
   520                           ;ECU_Layer/LED/ecu_led.c: 15:         pin_config_t pin_obj={.port=led->port_name,
   521   0018F8  C06B  F049         	movff	led_init@F3053,led_init@pin_obj
   522   0018FC  5046               	movf	led_init@led^0,w,c
   523   0018FE  6ED9               	movwf	fsr2l,c
   524   001900  6ADA               	clrf	fsr2h,c
   525   001902  50DF               	movf	223,w,c
   526   001904  0B07               	andlw	7
   527   001906  6E47               	movwf	??_led_init^0,c
   528   001908  5049               	movf	led_init@pin_obj^0,w,c
   529   00190A  1847               	xorwf	??_led_init^0,w,c
   530   00190C  0BF8               	andlw	-8
   531   00190E  1847               	xorwf	??_led_init^0,w,c
   532   001910  6E49               	movwf	led_init@pin_obj^0,c
   533   001912  5046               	movf	led_init@led^0,w,c
   534   001914  6ED9               	movwf	fsr2l,c
   535   001916  6ADA               	clrf	fsr2h,c
   536   001918  30DF               	rrcf	223,w,c
   537   00191A  32E8               	rrcf	wreg,f,c
   538   00191C  32E8               	rrcf	wreg,f,c
   539   00191E  0B07               	andlw	7
   540   001920  6E47               	movwf	??_led_init^0,c
   541   001922  4647               	rlncf	??_led_init^0,f,c
   542   001924  4647               	rlncf	??_led_init^0,f,c
   543   001926  4647               	rlncf	??_led_init^0,f,c
   544   001928  5049               	movf	led_init@pin_obj^0,w,c
   545   00192A  1847               	xorwf	??_led_init^0,w,c
   546   00192C  0BC7               	andlw	-57
   547   00192E  1847               	xorwf	??_led_init^0,w,c
   548   001930  6E49               	movwf	led_init@pin_obj^0,c
   549   001932  9C49               	bcf	led_init@pin_obj^0,6,c
   550   001934  5046               	movf	led_init@led^0,w,c
   551   001936  6ED9               	movwf	fsr2l,c
   552   001938  6ADA               	clrf	fsr2h,c
   553   00193A  ACDF               	btfss	indf2,6,c
   554   00193C  D002               	bra	u2185
   555   00193E  8E49               	bsf	led_init@pin_obj^0,7,c
   556   001940  D001               	bra	u2187
   557   001942                     u2185:
   558   001942  9E49               	bcf	led_init@pin_obj^0,7,c
   559   001944                     u2187:
   560   001944                     
   561                           ;ECU_Layer/LED/ecu_led.c: 20:         ret = gpio_pin_initialize(&pin_obj);
   562   001944  0E49               	movlw	low led_init@pin_obj
   563   001946  6E44               	movwf	gpio_pin_initialize@pin_config^0,c
   564   001948  ECE0  F00C         	call	_gpio_pin_initialize	;wreg free
   565   00194C  6E48               	movwf	led_init@ret^0,c
   566   00194E                     l2982:
   567                           
   568                           ;ECU_Layer/LED/ecu_led.c: 23:     return ret;
   569   00194E  5048               	movf	led_init@ret^0,w,c
   570   001950  0012               	return		;funcret
   571   001952                     __end_of_led_init:
   572                           	callstack 0
   573                           
   574 ;; *************** function _gpio_pin_initialize *****************
   575 ;; Defined at:
   576 ;;		line 89 in file "MCAL_Layer/GPIO/hal_gpio.c"
   577 ;; Parameters:    Size  Location     Type
   578 ;;  pin_config      1   26[COMRAM] PTR const struct .
   579 ;;		 -> relayInit@pinObj(1), led_init@pin_obj(1), 
   580 ;; Auto vars:     Size  Location     Type
   581 ;;  ret             1   27[COMRAM] unsigned char 
   582 ;; Return value:  Size  Location     Type
   583 ;;                  1    wreg      unsigned char 
   584 ;; Registers used:
   585 ;;		wreg, fsr2l, fsr2h, status,2, status,0, prodl, prodh, cstack
   586 ;; Tracked objects:
   587 ;;		On entry : 0/0
   588 ;;		On exit  : 0/0
   589 ;;		Unchanged: 0/0
   590 ;; Data sizes:     COMRAM   BANK0   BANK1   BANK2   BANK3   BANK4   BANK5   BANK6   BANK7   BANK8   BANK9  BANK10  BANK1
      +1  BANK12  BANK13  BANK14  BANK15
   591 ;;      Params:         1       0       0       0       0       0       0       0       0       0       0       0       
      +0       0       0       0       0
   592 ;;      Locals:         1       0       0       0       0       0       0       0       0       0       0       0       
      +0       0       0       0       0
   593 ;;      Temps:          0       0       0       0       0       0       0       0       0       0       0       0       
      +0       0       0       0       0
   594 ;;      Totals:         2       0       0       0       0       0       0       0       0       0       0       0       
      +0       0       0       0       0
   595 ;;Total ram usage:        2 bytes
   596 ;; Hardware stack levels used: 1
   597 ;; Hardware stack levels required when called: 6
   598 ;; This function calls:
   599 ;;		_gpio_pin_direction_initialize
   600 ;;		_gpio_pin_write_logic
   601 ;; This function is called by:
   602 ;;		_led_init
   603 ;;		_segInit
   604 ;;		_dcMotor_intit
   605 ;;		_keypadInit
   606 ;;		_lcd_4bit_intialize
   607 ;;		_lcd_8bit_intialize
   608 ;;		_relayInit
   609 ;;		_interrupt_INTx_Pin_Init
   610 ;; This function uses a non-reentrant model
   611 ;;
   612                           
   613                           	psect	text2
   614   0019C0                     __ptext2:
   615                           	callstack 0
   616   0019C0                     _gpio_pin_initialize:
   617                           	callstack 23
   618   0019C0                     
   619                           ;MCAL_Layer/GPIO/hal_gpio.c: 89: STD_ReturnType gpio_pin_initialize(const pin_config_t *
      +                          pin_config);MCAL_Layer/GPIO/hal_gpio.c: 90: {;MCAL_Layer/GPIO/hal_gpio.c: 91:     STD_Re
      +                          turnType ret = (STD_ReturnType) 0x01;
   620   0019C0  0E01               	movlw	1
   621   0019C2  6E45               	movwf	gpio_pin_initialize@ret^0,c
   622                           
   623                           ;MCAL_Layer/GPIO/hal_gpio.c: 92:     if(((void*)0) == pin_config){
   624   0019C4  5044               	movf	gpio_pin_initialize@pin_config^0,w,c
   625   0019C6  A4D8               	btfss	status,2,c
   626   0019C8  EFE8  F00C         	goto	u1991
   627   0019CC  EFEA  F00C         	goto	u1990
   628   0019D0                     u1991:
   629   0019D0  EFEE  F00C         	goto	l2796
   630   0019D4                     u1990:
   631   0019D4                     
   632                           ;MCAL_Layer/GPIO/hal_gpio.c: 93:         ret = (STD_ReturnType) 0x00;
   633   0019D4  0E00               	movlw	0
   634   0019D6  6E45               	movwf	gpio_pin_initialize@ret^0,c
   635                           
   636                           ;MCAL_Layer/GPIO/hal_gpio.c: 94:     }
   637   0019D8  EFFD  F00C         	goto	l2798
   638   0019DC                     l2796:
   639                           
   640                           ;MCAL_Layer/GPIO/hal_gpio.c: 96:        gpio_pin_direction_initialize(pin_config);
   641   0019DC  C044  F03C         	movff	gpio_pin_initialize@pin_config,gpio_pin_direction_initialize@pin_config
   642   0019E0  ECF9  F00A         	call	_gpio_pin_direction_initialize	;wreg free
   643                           
   644                           ;MCAL_Layer/GPIO/hal_gpio.c: 97:        gpio_pin_write_logic(pin_config,pin_config->logi
      +                          c);
   645   0019E4  C044  F03C         	movff	gpio_pin_initialize@pin_config,gpio_pin_write_logic@pin_config
   646   0019E8  5044               	movf	gpio_pin_initialize@pin_config^0,w,c
   647   0019EA  6ED9               	movwf	fsr2l,c
   648   0019EC  6ADA               	clrf	fsr2h,c
   649   0019EE  0E00               	movlw	0
   650   0019F0  BEDF               	btfsc	indf2,7,c
   651   0019F2  0E01               	movlw	1
   652   0019F4  6E3D               	movwf	gpio_pin_write_logic@logic^0,c
   653   0019F6  ECE9  F009         	call	_gpio_pin_write_logic	;wreg free
   654   0019FA                     l2798:
   655                           
   656                           ;MCAL_Layer/GPIO/hal_gpio.c: 99:     return ret;
   657   0019FA  5045               	movf	gpio_pin_initialize@ret^0,w,c
   658   0019FC  0012               	return		;funcret
   659   0019FE                     __end_of_gpio_pin_initialize:
   660                           	callstack 0
   661                           
   662 ;; *************** function _gpio_pin_write_logic *****************
   663 ;; Defined at:
   664 ;;		line 51 in file "MCAL_Layer/GPIO/hal_gpio.c"
   665 ;; Parameters:    Size  Location     Type
   666 ;;  pin_config      1   18[COMRAM] PTR struct .
   667 ;;		 -> relayOFF@pinObj(1), relayON@pinObj(1), relayInit@pinObj(1), led_off@pin_obj(1), 
   668 ;;		 -> led_on@pin_obj(1), led_init@pin_obj(1), 
   669 ;;  logic           1   19[COMRAM] enum E2972
   670 ;; Auto vars:     Size  Location     Type
   671 ;;  ret             1   25[COMRAM] unsigned char 
   672 ;; Return value:  Size  Location     Type
   673 ;;                  1    wreg      unsigned char 
   674 ;; Registers used:
   675 ;;		wreg, fsr2l, fsr2h, status,2, status,0, prodl, prodh
   676 ;; Tracked objects:
   677 ;;		On entry : 0/0
   678 ;;		On exit  : 0/0
   679 ;;		Unchanged: 0/0
   680 ;; Data sizes:     COMRAM   BANK0   BANK1   BANK2   BANK3   BANK4   BANK5   BANK6   BANK7   BANK8   BANK9  BANK10  BANK1
      +1  BANK12  BANK13  BANK14  BANK15
   681 ;;      Params:         2       0       0       0       0       0       0       0       0       0       0       0       
      +0       0       0       0       0
   682 ;;      Locals:         1       0       0       0       0       0       0       0       0       0       0       0       
      +0       0       0       0       0
   683 ;;      Temps:          5       0       0       0       0       0       0       0       0       0       0       0       
      +0       0       0       0       0
   684 ;;      Totals:         8       0       0       0       0       0       0       0       0       0       0       0       
      +0       0       0       0       0
   685 ;;Total ram usage:        8 bytes
   686 ;; Hardware stack levels used: 1
   687 ;; Hardware stack levels required when called: 5
   688 ;; This function calls:
   689 ;;		Nothing
   690 ;; This function is called by:
   691 ;;		_gpio_pin_initialize
   692 ;;		_segWrite
   693 ;;		_dcMotor_Move_right
   694 ;;		_dcMotor_Move_left
   695 ;;		_dcMotor_Stop
   696 ;;		_keypadReadValue
   697 ;;		_lcd_4bit_send_command
   698 ;;		_lcd_4bit_send_char_data
   699 ;;		_lcd_8bit_send_command
   700 ;;		_lcd_8bit_send_char_data
   701 ;;		_lcd_4bit_send_data
   702 ;;		_lcd_4bit_blink_en
   703 ;;		_lcd_8bit_send_data
   704 ;;		_lcd_8bit_blink_en
   705 ;;		_led_off
   706 ;;		_relayON
   707 ;;		_relayOFF
   708 ;; This function uses a non-reentrant model
   709 ;;
   710                           
   711                           	psect	text3
   712   0013D2                     __ptext3:
   713                           	callstack 0
   714   0013D2                     _gpio_pin_write_logic:
   715                           	callstack 23
   716   0013D2                     
   717                           ;MCAL_Layer/GPIO/hal_gpio.c: 51: STD_ReturnType gpio_pin_write_logic(pin_config_t *pin_c
      +                          onfig,logic_t logic);MCAL_Layer/GPIO/hal_gpio.c: 52: {;MCAL_Layer/GPIO/hal_gpio.c: 53:  
      +                             STD_ReturnType ret = (STD_ReturnType) 0x01;
   718   0013D2  0E01               	movlw	1
   719   0013D4  6E43               	movwf	gpio_pin_write_logic@ret^0,c
   720                           
   721                           ;MCAL_Layer/GPIO/hal_gpio.c: 54:     if(((void*)0) == pin_config){
   722   0013D6  503C               	movf	gpio_pin_write_logic@pin_config^0,w,c
   723   0013D8  A4D8               	btfss	status,2,c
   724   0013DA  EFF1  F009         	goto	u1871
   725   0013DE  EFF3  F009         	goto	u1870
   726   0013E2                     u1871:
   727   0013E2  EF5A  F00A         	goto	l2746
   728   0013E6                     u1870:
   729   0013E6                     l2732:
   730                           
   731                           ;MCAL_Layer/GPIO/hal_gpio.c: 55:         ret = (STD_ReturnType) 0x00;
   732   0013E6  0E00               	movlw	0
   733   0013E8  6E43               	movwf	gpio_pin_write_logic@ret^0,c
   734                           
   735                           ;MCAL_Layer/GPIO/hal_gpio.c: 56:     }
   736   0013EA  EF6F  F00A         	goto	l2748
   737   0013EE                     l2734:
   738                           
   739                           ;MCAL_Layer/GPIO/hal_gpio.c: 60:               (*(lat_regs[pin_config->port]) &= ~(0x01 
      +                          << pin_config->pin));
   740   0013EE  503C               	movf	gpio_pin_write_logic@pin_config^0,w,c
   741   0013F0  6ED9               	movwf	fsr2l,c
   742   0013F2  6ADA               	clrf	fsr2h,c
   743   0013F4  30DF               	rrcf	223,w,c
   744   0013F6  32E8               	rrcf	wreg,f,c
   745   0013F8  32E8               	rrcf	wreg,f,c
   746   0013FA  0B07               	andlw	7
   747   0013FC  6E3E               	movwf	??_gpio_pin_write_logic^0,c
   748   0013FE  0E01               	movlw	1
   749   001400  6E3F               	movwf	(??_gpio_pin_write_logic+1)^0,c
   750   001402  2A3E               	incf	??_gpio_pin_write_logic^0,f,c
   751   001404  EF06  F00A         	goto	u1884
   752   001408                     u1885:
   753   001408  90D8               	bcf	status,0,c
   754   00140A  363F               	rlcf	(??_gpio_pin_write_logic+1)^0,f,c
   755   00140C                     u1884:
   756   00140C  2E3E               	decfsz	??_gpio_pin_write_logic^0,f,c
   757   00140E  EF04  F00A         	goto	u1885
   758   001412  503F               	movf	(??_gpio_pin_write_logic+1)^0,w,c
   759   001414  0AFF               	xorlw	255
   760   001416  6E40               	movwf	(??_gpio_pin_write_logic+2)^0,c
   761   001418  503C               	movf	gpio_pin_write_logic@pin_config^0,w,c
   762   00141A  6ED9               	movwf	fsr2l,c
   763   00141C  6ADA               	clrf	fsr2h,c
   764   00141E  50DF               	movf	223,w,c
   765   001420  0B07               	andlw	7
   766   001422  0D02               	mullw	2
   767   001424  50F3               	movf	243,w,c
   768   001426  0F0B               	addlw	low _lat_regs
   769   001428  6ED9               	movwf	fsr2l,c
   770   00142A  6ADA               	clrf	fsr2h,c
   771   00142C  CFDE F041          	movff	postinc2,??_gpio_pin_write_logic+3
   772   001430  CFDD F042          	movff	postdec2,??_gpio_pin_write_logic+4
   773   001434  C041  FFD9         	movff	??_gpio_pin_write_logic+3,fsr2l
   774   001438  C042  FFDA         	movff	??_gpio_pin_write_logic+4,fsr2h
   775   00143C  5040               	movf	(??_gpio_pin_write_logic+2)^0,w,c
   776   00143E  16DF               	andwf	indf2,f,c
   777   001440                     
   778                           ;MCAL_Layer/GPIO/hal_gpio.c: 61:               pin_config->logic = logic;
   779   001440  503C               	movf	gpio_pin_write_logic@pin_config^0,w,c
   780   001442  6ED9               	movwf	fsr2l,c
   781   001444  6ADA               	clrf	fsr2h,c
   782   001446  B03D               	btfsc	gpio_pin_write_logic@logic^0,0,c
   783   001448  D002               	bra	u1895
   784   00144A  9EDF               	bcf	indf2,7,c
   785   00144C  D001               	bra	u1896
   786   00144E                     u1895:
   787   00144E  8EDF               	bsf	indf2,7,c
   788   001450                     u1896:
   789                           
   790                           ;MCAL_Layer/GPIO/hal_gpio.c: 62:               break;
   791   001450  EF6F  F00A         	goto	l2748
   792   001454                     l2738:
   793                           
   794                           ;MCAL_Layer/GPIO/hal_gpio.c: 65:               (*(lat_regs[pin_config->port]) |= (0x01 <
      +                          < pin_config->pin));
   795   001454  503C               	movf	gpio_pin_write_logic@pin_config^0,w,c
   796   001456  6ED9               	movwf	fsr2l,c
   797   001458  6ADA               	clrf	fsr2h,c
   798   00145A  30DF               	rrcf	223,w,c
   799   00145C  32E8               	rrcf	wreg,f,c
   800   00145E  32E8               	rrcf	wreg,f,c
   801   001460  0B07               	andlw	7
   802   001462  6E3E               	movwf	??_gpio_pin_write_logic^0,c
   803   001464  0E01               	movlw	1
   804   001466  6E3F               	movwf	(??_gpio_pin_write_logic+1)^0,c
   805   001468  2A3E               	incf	??_gpio_pin_write_logic^0,f,c
   806   00146A  EF39  F00A         	goto	u1904
   807   00146E                     u1905:
   808   00146E  90D8               	bcf	status,0,c
   809   001470  363F               	rlcf	(??_gpio_pin_write_logic+1)^0,f,c
   810   001472                     u1904:
   811   001472  2E3E               	decfsz	??_gpio_pin_write_logic^0,f,c
   812   001474  EF37  F00A         	goto	u1905
   813   001478  503C               	movf	gpio_pin_write_logic@pin_config^0,w,c
   814   00147A  6ED9               	movwf	fsr2l,c
   815   00147C  6ADA               	clrf	fsr2h,c
   816   00147E  50DF               	movf	223,w,c
   817   001480  0B07               	andlw	7
   818   001482  0D02               	mullw	2
   819   001484  50F3               	movf	243,w,c
   820   001486  0F0B               	addlw	low _lat_regs
   821   001488  6ED9               	movwf	fsr2l,c
   822   00148A  6ADA               	clrf	fsr2h,c
   823   00148C  CFDE F040          	movff	postinc2,??_gpio_pin_write_logic+2
   824   001490  CFDD F041          	movff	postdec2,??_gpio_pin_write_logic+3
   825   001494  C040  FFD9         	movff	??_gpio_pin_write_logic+2,fsr2l
   826   001498  C041  FFDA         	movff	??_gpio_pin_write_logic+3,fsr2h
   827   00149C  503F               	movf	(??_gpio_pin_write_logic+1)^0,w,c
   828   00149E  12DF               	iorwf	indf2,f,c
   829   0014A0                     
   830                           ;MCAL_Layer/GPIO/hal_gpio.c: 66:               pin_config->logic = logic;
   831   0014A0  503C               	movf	gpio_pin_write_logic@pin_config^0,w,c
   832   0014A2  6ED9               	movwf	fsr2l,c
   833   0014A4  6ADA               	clrf	fsr2h,c
   834   0014A6  B03D               	btfsc	gpio_pin_write_logic@logic^0,0,c
   835   0014A8  D002               	bra	u1915
   836   0014AA  9EDF               	bcf	indf2,7,c
   837   0014AC  D001               	bra	u1916
   838   0014AE                     u1915:
   839   0014AE  8EDF               	bsf	indf2,7,c
   840   0014B0                     u1916:
   841                           
   842                           ;MCAL_Layer/GPIO/hal_gpio.c: 67:               break;
   843   0014B0  EF6F  F00A         	goto	l2748
   844   0014B4                     l2746:
   845   0014B4  503D               	movf	gpio_pin_write_logic@logic^0,w,c
   846   0014B6  6E3E               	movwf	??_gpio_pin_write_logic^0,c
   847   0014B8  6A3F               	clrf	(??_gpio_pin_write_logic+1)^0,c
   848                           
   849                           ; Switch on 2 bytes has been partitioned into a top level switch of size 1, and 1 sub-sw
      +                          itches
   850                           ; Switch size 1, requested type "simple"
   851                           ; Number of cases is 1, Range of values is 0 to 0
   852                           ; switch strategies available:
   853                           ; Name         Instructions Cycles
   854                           ; simple_byte            4     3 (average)
   855                           ;	Chosen strategy is simple_byte
   856   0014BA  503F               	movf	(??_gpio_pin_write_logic+1)^0,w,c
   857   0014BC  0A00               	xorlw	0	; case 0
   858   0014BE  B4D8               	btfsc	status,2,c
   859   0014C0  EF64  F00A         	goto	l3696
   860   0014C4  EFF3  F009         	goto	l2732
   861   0014C8                     l3696:
   862                           
   863                           ; Switch size 1, requested type "simple"
   864                           ; Number of cases is 2, Range of values is 0 to 1
   865                           ; switch strategies available:
   866                           ; Name         Instructions Cycles
   867                           ; simple_byte            7     4 (average)
   868                           ;	Chosen strategy is simple_byte
   869   0014C8  503E               	movf	??_gpio_pin_write_logic^0,w,c
   870   0014CA  0A00               	xorlw	0	; case 0
   871   0014CC  B4D8               	btfsc	status,2,c
   872   0014CE  EFF7  F009         	goto	l2734
   873   0014D2  0A01               	xorlw	1	; case 1
   874   0014D4  B4D8               	btfsc	status,2,c
   875   0014D6  EF2A  F00A         	goto	l2738
   876   0014DA  EFF3  F009         	goto	l2732
   877   0014DE                     l2748:
   878                           
   879                           ;MCAL_Layer/GPIO/hal_gpio.c: 74:     return ret;
   880   0014DE  5043               	movf	gpio_pin_write_logic@ret^0,w,c
   881   0014E0  0012               	return		;funcret
   882   0014E2                     __end_of_gpio_pin_write_logic:
   883                           	callstack 0
   884                           
   885 ;; *************** function _Interrupt_RBx_Init *****************
   886 ;; Defined at:
   887 ;;		line 136 in file "C:/Users/Om562/MPLABXProjects/PIC18/MCAL_Layer/Interrupt/mcal_external_interrupt.c"
   888 ;; Parameters:    Size  Location     Type
   889 ;;  obj             1   25[COMRAM] PTR struct .
   890 ;;		 -> RB4_app(6), 
   891 ;; Auto vars:     Size  Location     Type
   892 ;;  ret             1   28[COMRAM] unsigned char 
   893 ;; Return value:  Size  Location     Type
   894 ;;                  1    wreg      unsigned char 
   895 ;; Registers used:
   896 ;;		wreg, fsr2l, fsr2h, status,2, status,0, prodl, prodh, cstack
   897 ;; Tracked objects:
   898 ;;		On entry : 0/0
   899 ;;		On exit  : 0/0
   900 ;;		Unchanged: 0/0
   901 ;; Data sizes:     COMRAM   BANK0   BANK1   BANK2   BANK3   BANK4   BANK5   BANK6   BANK7   BANK8   BANK9  BANK10  BANK1
      +1  BANK12  BANK13  BANK14  BANK15
   902 ;;      Params:         1       0       0       0       0       0       0       0       0       0       0       0       
      +0       0       0       0       0
   903 ;;      Locals:         1       0       0       0       0       0       0       0       0       0       0       0       
      +0       0       0       0       0
   904 ;;      Temps:          2       0       0       0       0       0       0       0       0       0       0       0       
      +0       0       0       0       0
   905 ;;      Totals:         4       0       0       0       0       0       0       0       0       0       0       0       
      +0       0       0       0       0
   906 ;;Total ram usage:        4 bytes
   907 ;; Hardware stack levels used: 1
   908 ;; Hardware stack levels required when called: 6
   909 ;; This function calls:
   910 ;;		_gpio_pin_direction_initialize
   911 ;; This function is called by:
   912 ;;		_main
   913 ;; This function uses a non-reentrant model
   914 ;;
   915                           
   916                           	psect	text4
   917   0012BC                     __ptext4:
   918                           	callstack 0
   919   0012BC                     _Interrupt_RBx_Init:
   920                           	callstack 24
   921   0012BC                     
   922                           ;C:/Users/Om562/MPLABXProjects/PIC18/MCAL_Layer/Interrupt/mcal_external_interrupt.c: 138
      +                          :     if (((void*)0) == obj) {
   923   0012BC  5043               	movf	Interrupt_RBx_Init@obj^0,w,c
   924   0012BE  A4D8               	btfss	status,2,c
   925   0012C0  EF64  F009         	goto	u2431
   926   0012C4  EF66  F009         	goto	u2430
   927   0012C8                     u2431:
   928   0012C8  EF6A  F009         	goto	l526
   929   0012CC                     u2430:
   930   0012CC                     
   931                           ;C:/Users/Om562/MPLABXProjects/PIC18/MCAL_Layer/Interrupt/mcal_external_interrupt.c: 139
      +                          :         ret = (STD_ReturnType) 0x00;
   932   0012CC  0E00               	movlw	0
   933   0012CE  6E46               	movwf	Interrupt_RBx_Init@ret^0,c
   934                           
   935                           ;C:/Users/Om562/MPLABXProjects/PIC18/MCAL_Layer/Interrupt/mcal_external_interrupt.c: 140
      +                          :     } else {
   936   0012D0  EFE7  F009         	goto	l527
   937   0012D4                     l526:
   938                           
   939                           ;C:/Users/Om562/MPLABXProjects/PIC18/MCAL_Layer/Interrupt/mcal_external_interrupt.c: 142
      +                          :         (INTCONbits.RBIE = 0);
   940   0012D4  96F2               	bcf	242,3,c	;volatile
   941                           
   942                           ;C:/Users/Om562/MPLABXProjects/PIC18/MCAL_Layer/Interrupt/mcal_external_interrupt.c: 144
      +                          :         (INTCONbits.RBIF = 0);
   943   0012D6  90F2               	bcf	242,0,c	;volatile
   944                           
   945                           ;C:/Users/Om562/MPLABXProjects/PIC18/MCAL_Layer/Interrupt/mcal_external_interrupt.c: 157
      +                          :         (INTCONbits.GIE = 1);
   946   0012D8  8EF2               	bsf	242,7,c	;volatile
   947                           
   948                           ;C:/Users/Om562/MPLABXProjects/PIC18/MCAL_Layer/Interrupt/mcal_external_interrupt.c: 158
      +                          :         (INTCONbits.PEIE = 1);
   949   0012DA  8CF2               	bsf	242,6,c	;volatile
   950   0012DC  5043               	movf	Interrupt_RBx_Init@obj^0,w,c
   951   0012DE  0F04               	addlw	4
   952   0012E0  6E3C               	movwf	gpio_pin_direction_initialize@pin_config^0,c
   953   0012E2  ECF9  F00A         	call	_gpio_pin_direction_initialize	;wreg free
   954                           
   955                           ;C:/Users/Om562/MPLABXProjects/PIC18/MCAL_Layer/Interrupt/mcal_external_interrupt.c: 163
      +                          :         switch (obj->pin.pin) {
   956   0012E6  EFBF  F009         	goto	l3066
   957   0012EA                     l3048:
   958                           
   959                           ;C:/Users/Om562/MPLABXProjects/PIC18/MCAL_Layer/Interrupt/mcal_external_interrupt.c: 165
      +                          :                 RB4_CallBack_HIGH = obj->callback_function_HIGH;
   960   0012EA  5043               	movf	Interrupt_RBx_Init@obj^0,w,c
   961   0012EC  6ED9               	movwf	fsr2l,c
   962   0012EE  6ADA               	clrf	fsr2h,c
   963   0012F0  CFDE F05D          	movff	postinc2,_RB4_CallBack_HIGH
   964   0012F4  CFDD F05E          	movff	postdec2,_RB4_CallBack_HIGH+1
   965   0012F8                     
   966                           ;C:/Users/Om562/MPLABXProjects/PIC18/MCAL_Layer/Interrupt/mcal_external_interrupt.c: 166
      +                          :                 RB4_CallBack_LOW = obj->callback_function_LOW;
   967   0012F8  5043               	movf	Interrupt_RBx_Init@obj^0,w,c
   968   0012FA  6ED9               	movwf	fsr2l,c
   969   0012FC  6ADA               	clrf	fsr2h,c
   970   0012FE  0E02               	movlw	2
   971   001300  26D9               	addwf	fsr2l,f,c
   972   001302  CFDE F055          	movff	postinc2,_RB4_CallBack_LOW
   973   001306  CFDD F056          	movff	postdec2,_RB4_CallBack_LOW+1
   974                           
   975                           ;C:/Users/Om562/MPLABXProjects/PIC18/MCAL_Layer/Interrupt/mcal_external_interrupt.c: 167
      +                          :                 break;
   976   00130A  EFE4  F009         	goto	l530
   977   00130E                     l3052:
   978                           
   979                           ;C:/Users/Om562/MPLABXProjects/PIC18/MCAL_Layer/Interrupt/mcal_external_interrupt.c: 170
      +                          :                 RB5_CallBack_HIGH = obj->callback_function_HIGH;
   980   00130E  5043               	movf	Interrupt_RBx_Init@obj^0,w,c
   981   001310  6ED9               	movwf	fsr2l,c
   982   001312  6ADA               	clrf	fsr2h,c
   983   001314  CFDE F05B          	movff	postinc2,_RB5_CallBack_HIGH
   984   001318  CFDD F05C          	movff	postdec2,_RB5_CallBack_HIGH+1
   985   00131C                     
   986                           ;C:/Users/Om562/MPLABXProjects/PIC18/MCAL_Layer/Interrupt/mcal_external_interrupt.c: 171
      +                          :                 RB5_CallBack_LOW = obj->callback_function_LOW;
   987   00131C  5043               	movf	Interrupt_RBx_Init@obj^0,w,c
   988   00131E  6ED9               	movwf	fsr2l,c
   989   001320  6ADA               	clrf	fsr2h,c
   990   001322  0E02               	movlw	2
   991   001324  26D9               	addwf	fsr2l,f,c
   992   001326  CFDE F053          	movff	postinc2,_RB5_CallBack_LOW
   993   00132A  CFDD F054          	movff	postdec2,_RB5_CallBack_LOW+1
   994                           
   995                           ;C:/Users/Om562/MPLABXProjects/PIC18/MCAL_Layer/Interrupt/mcal_external_interrupt.c: 172
      +                          :                 break;
   996   00132E  EFE4  F009         	goto	l530
   997   001332                     l3056:
   998                           
   999                           ;C:/Users/Om562/MPLABXProjects/PIC18/MCAL_Layer/Interrupt/mcal_external_interrupt.c: 175
      +                          :                 RB6_CallBack_HIGH = obj->callback_function_HIGH;
  1000   001332  5043               	movf	Interrupt_RBx_Init@obj^0,w,c
  1001   001334  6ED9               	movwf	fsr2l,c
  1002   001336  6ADA               	clrf	fsr2h,c
  1003   001338  CFDE F059          	movff	postinc2,_RB6_CallBack_HIGH
  1004   00133C  CFDD F05A          	movff	postdec2,_RB6_CallBack_HIGH+1
  1005   001340                     
  1006                           ;C:/Users/Om562/MPLABXProjects/PIC18/MCAL_Layer/Interrupt/mcal_external_interrupt.c: 176
      +                          :                 RB6_CallBack_LOW = obj->callback_function_LOW;
  1007   001340  5043               	movf	Interrupt_RBx_Init@obj^0,w,c
  1008   001342  6ED9               	movwf	fsr2l,c
  1009   001344  6ADA               	clrf	fsr2h,c
  1010   001346  0E02               	movlw	2
  1011   001348  26D9               	addwf	fsr2l,f,c
  1012   00134A  CFDE F051          	movff	postinc2,_RB6_CallBack_LOW
  1013   00134E  CFDD F052          	movff	postdec2,_RB6_CallBack_LOW+1
  1014                           
  1015                           ;C:/Users/Om562/MPLABXProjects/PIC18/MCAL_Layer/Interrupt/mcal_external_interrupt.c: 177
      +                          :                 break;
  1016   001352  EFE4  F009         	goto	l530
  1017   001356                     l3060:
  1018                           
  1019                           ;C:/Users/Om562/MPLABXProjects/PIC18/MCAL_Layer/Interrupt/mcal_external_interrupt.c: 180
      +                          :                 RB7_CallBack_HIGH = obj->callback_function_HIGH;
  1020   001356  5043               	movf	Interrupt_RBx_Init@obj^0,w,c
  1021   001358  6ED9               	movwf	fsr2l,c
  1022   00135A  6ADA               	clrf	fsr2h,c
  1023   00135C  CFDE F057          	movff	postinc2,_RB7_CallBack_HIGH
  1024   001360  CFDD F058          	movff	postdec2,_RB7_CallBack_HIGH+1
  1025   001364                     
  1026                           ;C:/Users/Om562/MPLABXProjects/PIC18/MCAL_Layer/Interrupt/mcal_external_interrupt.c: 181
      +                          :                 RB7_CallBack_LOW = obj->callback_function_LOW;
  1027   001364  5043               	movf	Interrupt_RBx_Init@obj^0,w,c
  1028   001366  6ED9               	movwf	fsr2l,c
  1029   001368  6ADA               	clrf	fsr2h,c
  1030   00136A  0E02               	movlw	2
  1031   00136C  26D9               	addwf	fsr2l,f,c
  1032   00136E  CFDE F04F          	movff	postinc2,_RB7_CallBack_LOW
  1033   001372  CFDD F050          	movff	postdec2,_RB7_CallBack_LOW+1
  1034                           
  1035                           ;C:/Users/Om562/MPLABXProjects/PIC18/MCAL_Layer/Interrupt/mcal_external_interrupt.c: 182
      +                          :                 break;
  1036   001376  EFE4  F009         	goto	l530
  1037   00137A                     l3064:
  1038                           
  1039                           ;C:/Users/Om562/MPLABXProjects/PIC18/MCAL_Layer/Interrupt/mcal_external_interrupt.c: 184
      +                          :         }
  1040   00137A  EFE4  F009         	goto	l530
  1041   00137E                     l3066:
  1042   00137E  5043               	movf	Interrupt_RBx_Init@obj^0,w,c
  1043   001380  6ED9               	movwf	fsr2l,c
  1044   001382  6ADA               	clrf	fsr2h,c
  1045   001384  0E04               	movlw	4
  1046   001386  26D9               	addwf	fsr2l,f,c
  1047   001388  30DF               	rrcf	223,w,c
  1048   00138A  32E8               	rrcf	wreg,f,c
  1049   00138C  32E8               	rrcf	wreg,f,c
  1050   00138E  0B07               	andlw	7
  1051   001390  6E44               	movwf	??_Interrupt_RBx_Init^0,c
  1052   001392  6A45               	clrf	(??_Interrupt_RBx_Init+1)^0,c
  1053                           
  1054                           ; Switch on 2 bytes has been partitioned into a top level switch of size 1, and 1 sub-sw
      +                          itches
  1055                           ; Switch size 1, requested type "simple"
  1056                           ; Number of cases is 1, Range of values is 0 to 0
  1057                           ; switch strategies available:
  1058                           ; Name         Instructions Cycles
  1059                           ; simple_byte            4     3 (average)
  1060                           ;	Chosen strategy is simple_byte
  1061   001394  5045               	movf	(??_Interrupt_RBx_Init+1)^0,w,c
  1062   001396  0A00               	xorlw	0	; case 0
  1063   001398  B4D8               	btfsc	status,2,c
  1064   00139A  EFD1  F009         	goto	l3698
  1065   00139E  EFBD  F009         	goto	l3064
  1066   0013A2                     l3698:
  1067                           
  1068                           ; Switch size 1, requested type "simple"
  1069                           ; Number of cases is 4, Range of values is 4 to 7
  1070                           ; switch strategies available:
  1071                           ; Name         Instructions Cycles
  1072                           ; simple_byte           13     7 (average)
  1073                           ;	Chosen strategy is simple_byte
  1074   0013A2  5044               	movf	??_Interrupt_RBx_Init^0,w,c
  1075   0013A4  0A04               	xorlw	4	; case 4
  1076   0013A6  B4D8               	btfsc	status,2,c
  1077   0013A8  EF75  F009         	goto	l3048
  1078   0013AC  0A01               	xorlw	1	; case 5
  1079   0013AE  B4D8               	btfsc	status,2,c
  1080   0013B0  EF87  F009         	goto	l3052
  1081   0013B4  0A03               	xorlw	3	; case 6
  1082   0013B6  B4D8               	btfsc	status,2,c
  1083   0013B8  EF99  F009         	goto	l3056
  1084   0013BC  0A01               	xorlw	1	; case 7
  1085   0013BE  B4D8               	btfsc	status,2,c
  1086   0013C0  EFAB  F009         	goto	l3060
  1087   0013C4  EFBD  F009         	goto	l3064
  1088   0013C8                     l530:
  1089                           
  1090                           ;C:/Users/Om562/MPLABXProjects/PIC18/MCAL_Layer/Interrupt/mcal_external_interrupt.c: 186
      +                          :         (INTCONbits.RBIE = 1);
  1091   0013C8  86F2               	bsf	242,3,c	;volatile
  1092   0013CA                     
  1093                           ;C:/Users/Om562/MPLABXProjects/PIC18/MCAL_Layer/Interrupt/mcal_external_interrupt.c: 187
      +                          :         ret = (STD_ReturnType) 0x01;
  1094   0013CA  0E01               	movlw	1
  1095   0013CC  6E46               	movwf	Interrupt_RBx_Init@ret^0,c
  1096   0013CE                     l527:
  1097                           
  1098                           ;C:/Users/Om562/MPLABXProjects/PIC18/MCAL_Layer/Interrupt/mcal_external_interrupt.c: 189
      +                          :     return ret;
  1099   0013CE  5046               	movf	Interrupt_RBx_Init@ret^0,w,c
  1100   0013D0  0012               	return		;funcret
  1101   0013D2                     __end_of_Interrupt_RBx_Init:
  1102                           	callstack 0
  1103                           
  1104 ;; *************** function _gpio_pin_direction_initialize *****************
  1105 ;; Defined at:
  1106 ;;		line 18 in file "MCAL_Layer/GPIO/hal_gpio.c"
  1107 ;; Parameters:    Size  Location     Type
  1108 ;;  pin_config      1   18[COMRAM] PTR const struct .
  1109 ;;		 -> RB4_app$pin(1), RB4_app(6), relayInit@pinObj(1), led_init@pin_obj(1), 
  1110 ;; Auto vars:     Size  Location     Type
  1111 ;;  ret             1   24[COMRAM] unsigned char 
  1112 ;; Return value:  Size  Location     Type
  1113 ;;                  1    wreg      unsigned char 
  1114 ;; Registers used:
  1115 ;;		wreg, fsr2l, fsr2h, status,2, status,0, prodl, prodh
  1116 ;; Tracked objects:
  1117 ;;		On entry : 0/0
  1118 ;;		On exit  : 0/0
  1119 ;;		Unchanged: 0/0
  1120 ;; Data sizes:     COMRAM   BANK0   BANK1   BANK2   BANK3   BANK4   BANK5   BANK6   BANK7   BANK8   BANK9  BANK10  BANK1
      +1  BANK12  BANK13  BANK14  BANK15
  1121 ;;      Params:         1       0       0       0       0       0       0       0       0       0       0       0       
      +0       0       0       0       0
  1122 ;;      Locals:         1       0       0       0       0       0       0       0       0       0       0       0       
      +0       0       0       0       0
  1123 ;;      Temps:          5       0       0       0       0       0       0       0       0       0       0       0       
      +0       0       0       0       0
  1124 ;;      Totals:         7       0       0       0       0       0       0       0       0       0       0       0       
      +0       0       0       0       0
  1125 ;;Total ram usage:        7 bytes
  1126 ;; Hardware stack levels used: 1
  1127 ;; Hardware stack levels required when called: 5
  1128 ;; This function calls:
  1129 ;;		Nothing
  1130 ;; This function is called by:
  1131 ;;		_gpio_pin_initialize
  1132 ;;		_Interrupt_RBx_Init
  1133 ;;		_btn_init
  1134 ;; This function uses a non-reentrant model
  1135 ;;
  1136                           
  1137                           	psect	text5
  1138   0015F2                     __ptext5:
  1139                           	callstack 0
  1140   0015F2                     _gpio_pin_direction_initialize:
  1141                           	callstack 23
  1142   0015F2                     
  1143                           ;MCAL_Layer/GPIO/hal_gpio.c: 18: STD_ReturnType gpio_pin_direction_initialize(const pin_
      +                          config_t * pin_config);MCAL_Layer/GPIO/hal_gpio.c: 19: {;MCAL_Layer/GPIO/hal_gpio.c: 20:
      +                               STD_ReturnType ret = (STD_ReturnType) 0x01;
  1144   0015F2  0E01               	movlw	1
  1145   0015F4  6E42               	movwf	gpio_pin_direction_initialize@ret^0,c
  1146                           
  1147                           ;MCAL_Layer/GPIO/hal_gpio.c: 21:     if(((void*)0) == pin_config){
  1148   0015F6  503C               	movf	gpio_pin_direction_initialize@pin_config^0,w,c
  1149   0015F8  A4D8               	btfss	status,2,c
  1150   0015FA  EF01  F00B         	goto	u1921
  1151   0015FE  EF03  F00B         	goto	u1920
  1152   001602                     u1921:
  1153   001602  EF5A  F00B         	goto	l2768
  1154   001606                     u1920:
  1155   001606                     l2758:
  1156                           
  1157                           ;MCAL_Layer/GPIO/hal_gpio.c: 22:         ret = (STD_ReturnType) 0x00;
  1158   001606  0E00               	movlw	0
  1159   001608  6E42               	movwf	gpio_pin_direction_initialize@ret^0,c
  1160                           
  1161                           ;MCAL_Layer/GPIO/hal_gpio.c: 23:     }
  1162   00160A  EF7A  F00B         	goto	l2770
  1163   00160E                     l2760:
  1164                           
  1165                           ;MCAL_Layer/GPIO/hal_gpio.c: 27:               (*(tris_regs[pin_config->port]) &= ~(0x01
      +                           << pin_config->pin));
  1166   00160E  503C               	movf	gpio_pin_direction_initialize@pin_config^0,w,c
  1167   001610  6ED9               	movwf	fsr2l,c
  1168   001612  6ADA               	clrf	fsr2h,c
  1169   001614  30DF               	rrcf	223,w,c
  1170   001616  32E8               	rrcf	wreg,f,c
  1171   001618  32E8               	rrcf	wreg,f,c
  1172   00161A  0B07               	andlw	7
  1173   00161C  6E3D               	movwf	??_gpio_pin_direction_initialize^0,c
  1174   00161E  0E01               	movlw	1
  1175   001620  6E3E               	movwf	(??_gpio_pin_direction_initialize+1)^0,c
  1176   001622  2A3D               	incf	??_gpio_pin_direction_initialize^0,f,c
  1177   001624  EF16  F00B         	goto	u1934
  1178   001628                     u1935:
  1179   001628  90D8               	bcf	status,0,c
  1180   00162A  363E               	rlcf	(??_gpio_pin_direction_initialize+1)^0,f,c
  1181   00162C                     u1934:
  1182   00162C  2E3D               	decfsz	??_gpio_pin_direction_initialize^0,f,c
  1183   00162E  EF14  F00B         	goto	u1935
  1184   001632  503E               	movf	(??_gpio_pin_direction_initialize+1)^0,w,c
  1185   001634  0AFF               	xorlw	255
  1186   001636  6E3F               	movwf	(??_gpio_pin_direction_initialize+2)^0,c
  1187   001638  503C               	movf	gpio_pin_direction_initialize@pin_config^0,w,c
  1188   00163A  6ED9               	movwf	fsr2l,c
  1189   00163C  6ADA               	clrf	fsr2h,c
  1190   00163E  50DF               	movf	223,w,c
  1191   001640  0B07               	andlw	7
  1192   001642  0D02               	mullw	2
  1193   001644  50F3               	movf	243,w,c
  1194   001646  0F15               	addlw	low _tris_regs
  1195   001648  6ED9               	movwf	fsr2l,c
  1196   00164A  6ADA               	clrf	fsr2h,c
  1197   00164C  CFDE F040          	movff	postinc2,??_gpio_pin_direction_initialize+3
  1198   001650  CFDD F041          	movff	postdec2,??_gpio_pin_direction_initialize+4
  1199   001654  C040  FFD9         	movff	??_gpio_pin_direction_initialize+3,fsr2l
  1200   001658  C041  FFDA         	movff	??_gpio_pin_direction_initialize+4,fsr2h
  1201   00165C  503F               	movf	(??_gpio_pin_direction_initialize+2)^0,w,c
  1202   00165E  16DF               	andwf	indf2,f,c
  1203                           
  1204                           ;MCAL_Layer/GPIO/hal_gpio.c: 28:               break;
  1205   001660  EF7A  F00B         	goto	l2770
  1206   001664                     l2762:
  1207                           
  1208                           ;MCAL_Layer/GPIO/hal_gpio.c: 31:               (*(tris_regs[pin_config->port]) |= (0x01 
      +                          << pin_config->pin));
  1209   001664  503C               	movf	gpio_pin_direction_initialize@pin_config^0,w,c
  1210   001666  6ED9               	movwf	fsr2l,c
  1211   001668  6ADA               	clrf	fsr2h,c
  1212   00166A  30DF               	rrcf	223,w,c
  1213   00166C  32E8               	rrcf	wreg,f,c
  1214   00166E  32E8               	rrcf	wreg,f,c
  1215   001670  0B07               	andlw	7
  1216   001672  6E3D               	movwf	??_gpio_pin_direction_initialize^0,c
  1217   001674  0E01               	movlw	1
  1218   001676  6E3E               	movwf	(??_gpio_pin_direction_initialize+1)^0,c
  1219   001678  2A3D               	incf	??_gpio_pin_direction_initialize^0,f,c
  1220   00167A  EF41  F00B         	goto	u1944
  1221   00167E                     u1945:
  1222   00167E  90D8               	bcf	status,0,c
  1223   001680  363E               	rlcf	(??_gpio_pin_direction_initialize+1)^0,f,c
  1224   001682                     u1944:
  1225   001682  2E3D               	decfsz	??_gpio_pin_direction_initialize^0,f,c
  1226   001684  EF3F  F00B         	goto	u1945
  1227   001688  503C               	movf	gpio_pin_direction_initialize@pin_config^0,w,c
  1228   00168A  6ED9               	movwf	fsr2l,c
  1229   00168C  6ADA               	clrf	fsr2h,c
  1230   00168E  50DF               	movf	223,w,c
  1231   001690  0B07               	andlw	7
  1232   001692  0D02               	mullw	2
  1233   001694  50F3               	movf	243,w,c
  1234   001696  0F15               	addlw	low _tris_regs
  1235   001698  6ED9               	movwf	fsr2l,c
  1236   00169A  6ADA               	clrf	fsr2h,c
  1237   00169C  CFDE F03F          	movff	postinc2,??_gpio_pin_direction_initialize+2
  1238   0016A0  CFDD F040          	movff	postdec2,??_gpio_pin_direction_initialize+3
  1239   0016A4  C03F  FFD9         	movff	??_gpio_pin_direction_initialize+2,fsr2l
  1240   0016A8  C040  FFDA         	movff	??_gpio_pin_direction_initialize+3,fsr2h
  1241   0016AC  503E               	movf	(??_gpio_pin_direction_initialize+1)^0,w,c
  1242   0016AE  12DF               	iorwf	indf2,f,c
  1243                           
  1244                           ;MCAL_Layer/GPIO/hal_gpio.c: 32:               break;
  1245   0016B0  EF7A  F00B         	goto	l2770
  1246   0016B4                     l2768:
  1247   0016B4  503C               	movf	gpio_pin_direction_initialize@pin_config^0,w,c
  1248   0016B6  6ED9               	movwf	fsr2l,c
  1249   0016B8  6ADA               	clrf	fsr2h,c
  1250   0016BA  BCDF               	btfsc	indf2,6,c
  1251   0016BC  EF62  F00B         	goto	u1951
  1252   0016C0  EF65  F00B         	goto	u1950
  1253   0016C4                     u1951:
  1254   0016C4  0E01               	movlw	1
  1255   0016C6  EF66  F00B         	goto	u1960
  1256   0016CA                     u1950:
  1257   0016CA  0E00               	movlw	0
  1258   0016CC                     u1960:
  1259   0016CC  6E3D               	movwf	??_gpio_pin_direction_initialize^0,c
  1260   0016CE  6A3E               	clrf	(??_gpio_pin_direction_initialize+1)^0,c
  1261                           
  1262                           ; Switch on 2 bytes has been partitioned into a top level switch of size 1, and 1 sub-sw
      +                          itches
  1263                           ; Switch size 1, requested type "simple"
  1264                           ; Number of cases is 1, Range of values is 0 to 0
  1265                           ; switch strategies available:
  1266                           ; Name         Instructions Cycles
  1267                           ; simple_byte            4     3 (average)
  1268                           ;	Chosen strategy is simple_byte
  1269   0016D0  503E               	movf	(??_gpio_pin_direction_initialize+1)^0,w,c
  1270   0016D2  0A00               	xorlw	0	; case 0
  1271   0016D4  B4D8               	btfsc	status,2,c
  1272   0016D6  EF6F  F00B         	goto	l3700
  1273   0016DA  EF03  F00B         	goto	l2758
  1274   0016DE                     l3700:
  1275                           
  1276                           ; Switch size 1, requested type "simple"
  1277                           ; Number of cases is 2, Range of values is 0 to 1
  1278                           ; switch strategies available:
  1279                           ; Name         Instructions Cycles
  1280                           ; simple_byte            7     4 (average)
  1281                           ;	Chosen strategy is simple_byte
  1282   0016DE  503D               	movf	??_gpio_pin_direction_initialize^0,w,c
  1283   0016E0  0A00               	xorlw	0	; case 0
  1284   0016E2  B4D8               	btfsc	status,2,c
  1285   0016E4  EF07  F00B         	goto	l2760
  1286   0016E8  0A01               	xorlw	1	; case 1
  1287   0016EA  B4D8               	btfsc	status,2,c
  1288   0016EC  EF32  F00B         	goto	l2762
  1289   0016F0  EF03  F00B         	goto	l2758
  1290   0016F4                     l2770:
  1291                           
  1292                           ;MCAL_Layer/GPIO/hal_gpio.c: 38:     return ret;
  1293   0016F4  5042               	movf	gpio_pin_direction_initialize@ret^0,w,c
  1294   0016F6  0012               	return		;funcret
  1295   0016F8                     __end_of_gpio_pin_direction_initialize:
  1296                           	callstack 0
  1297                           
  1298 ;; *************** function _InterruptManager *****************
  1299 ;; Defined at:
  1300 ;;		line 37 in file "C:/Users/Om562/MPLABXProjects/PIC18/MCAL_Layer/Interrupt/mcal_interrupt_manager.c"
  1301 ;; Parameters:    Size  Location     Type
  1302 ;;		None
  1303 ;; Auto vars:     Size  Location     Type
  1304 ;;		None
  1305 ;; Return value:  Size  Location     Type
  1306 ;;                  1    wreg      void 
  1307 ;; Registers used:
  1308 ;;		wreg, fsr2l, fsr2h, status,2, status,0, pcl, pclath, pclatu, tosl, prodl, prodh, cstack
  1309 ;; Tracked objects:
  1310 ;;		On entry : 0/0
  1311 ;;		On exit  : 0/0
  1312 ;;		Unchanged: 0/0
  1313 ;; Data sizes:     COMRAM   BANK0   BANK1   BANK2   BANK3   BANK4   BANK5   BANK6   BANK7   BANK8   BANK9  BANK10  BANK1
      +1  BANK12  BANK13  BANK14  BANK15
  1314 ;;      Params:         0       0       0       0       0       0       0       0       0       0       0       0       
      +0       0       0       0       0
  1315 ;;      Locals:         0       0       0       0       0       0       0       0       0       0       0       0       
      +0       0       0       0       0
  1316 ;;      Temps:          6       0       0       0       0       0       0       0       0       0       0       0       
      +0       0       0       0       0
  1317 ;;      Totals:         6       0       0       0       0       0       0       0       0       0       0       0       
      +0       0       0       0       0
  1318 ;;Total ram usage:        6 bytes
  1319 ;; Hardware stack levels used: 1
  1320 ;; Hardware stack levels required when called: 4
  1321 ;; This function calls:
  1322 ;;		_INT0_ISR
  1323 ;;		_INT1_ISR
  1324 ;;		_INT2_ISR
  1325 ;;		_RB4_ISR
  1326 ;;		_RB5_ISR
  1327 ;;		_RB6_ISR
  1328 ;;		_RB7_ISR
  1329 ;; This function is called by:
  1330 ;;		Interrupt level 2
  1331 ;; This function uses a non-reentrant model
  1332 ;;
  1333                           
  1334                           	psect	intcode
  1335   000008                     __pintcode:
  1336                           	callstack 0
  1337   000008                     _InterruptManager:
  1338                           	callstack 23
  1339                           
  1340                           ;incstack = 0
  1341   000008  826C               	bsf	int$flags,1,c	;set compiler interrupt flag (level 2)
  1342   00000A  ED03  F008         	call	int_func,f	;refresh shadow registers
  1343                           
  1344                           	psect	intcode_body
  1345   001006                     __pintcode_body:
  1346                           	callstack 23
  1347   001006                     int_func:
  1348                           	callstack 23
  1349   001006  0006               	pop		; remove dummy address from shadow register refresh
  1350   001008  CFFA F036          	movff	pclath,??_InterruptManager
  1351   00100C  CFFB F037          	movff	pclatu,??_InterruptManager+1
  1352   001010  CFD9 F038          	movff	fsr2l,??_InterruptManager+2
  1353   001014  CFDA F039          	movff	fsr2h,??_InterruptManager+3
  1354   001018  CFF3 F03A          	movff	prodl,??_InterruptManager+4
  1355   00101C  CFF4 F03B          	movff	prodh,??_InterruptManager+5
  1356   001020                     
  1357                           ;C:/Users/Om562/MPLABXProjects/PIC18/MCAL_Layer/Interrupt/mcal_interrupt_manager.c: 38: 
      +                              if ((INTCONbits.INT0IE == 1) && (INTCONbits.INT0IF == 1)) {
  1358   001020  A8F2               	btfss	242,4,c	;volatile
  1359   001022  EF15  F008         	goto	i2u288_41
  1360   001026  EF17  F008         	goto	i2u288_40
  1361   00102A                     i2u288_41:
  1362   00102A  EF20  F008         	goto	i2l3566
  1363   00102E                     i2u288_40:
  1364   00102E  A2F2               	btfss	242,1,c	;volatile
  1365   001030  EF1C  F008         	goto	i2u289_41
  1366   001034  EF1E  F008         	goto	i2u289_40
  1367   001038                     i2u289_41:
  1368   001038  EF20  F008         	goto	i2l3566
  1369   00103C                     i2u289_40:
  1370   00103C                     
  1371                           ;C:/Users/Om562/MPLABXProjects/PIC18/MCAL_Layer/Interrupt/mcal_interrupt_manager.c: 39: 
      +                                  INT0_ISR();
  1372   00103C  EC44  F00D         	call	_INT0_ISR	;wreg free
  1373   001040                     i2l3566:
  1374                           
  1375                           ;C:/Users/Om562/MPLABXProjects/PIC18/MCAL_Layer/Interrupt/mcal_interrupt_manager.c: 41: 
      +                              if ((INTCON3bits.INT1E == 1) && (INTCON3bits.INT1IF == 1)) {
  1376   001040  A6F0               	btfss	240,3,c	;volatile
  1377   001042  EF25  F008         	goto	i2u290_41
  1378   001046  EF27  F008         	goto	i2u290_40
  1379   00104A                     i2u290_41:
  1380   00104A  EF30  F008         	goto	i2l3572
  1381   00104E                     i2u290_40:
  1382   00104E  A0F0               	btfss	240,0,c	;volatile
  1383   001050  EF2C  F008         	goto	i2u291_41
  1384   001054  EF2E  F008         	goto	i2u291_40
  1385   001058                     i2u291_41:
  1386   001058  EF30  F008         	goto	i2l3572
  1387   00105C                     i2u291_40:
  1388   00105C                     
  1389                           ;C:/Users/Om562/MPLABXProjects/PIC18/MCAL_Layer/Interrupt/mcal_interrupt_manager.c: 42: 
      +                                  INT1_ISR();
  1390   00105C  EC42  F00D         	call	_INT1_ISR	;wreg free
  1391   001060                     i2l3572:
  1392                           
  1393                           ;C:/Users/Om562/MPLABXProjects/PIC18/MCAL_Layer/Interrupt/mcal_interrupt_manager.c: 44: 
      +                              if ((INTCON3bits.INT2IE == 1) && (INTCON3bits.INT2IF == 1)) {
  1394   001060  A8F0               	btfss	240,4,c	;volatile
  1395   001062  EF35  F008         	goto	i2u292_41
  1396   001066  EF37  F008         	goto	i2u292_40
  1397   00106A                     i2u292_41:
  1398   00106A  EF40  F008         	goto	i2l3578
  1399   00106E                     i2u292_40:
  1400   00106E  A2F0               	btfss	240,1,c	;volatile
  1401   001070  EF3C  F008         	goto	i2u293_41
  1402   001074  EF3E  F008         	goto	i2u293_40
  1403   001078                     i2u293_41:
  1404   001078  EF40  F008         	goto	i2l3578
  1405   00107C                     i2u293_40:
  1406   00107C                     
  1407                           ;C:/Users/Om562/MPLABXProjects/PIC18/MCAL_Layer/Interrupt/mcal_interrupt_manager.c: 45: 
      +                                  INT2_ISR();
  1408   00107C  EC40  F00D         	call	_INT2_ISR	;wreg free
  1409   001080                     i2l3578:
  1410                           
  1411                           ;C:/Users/Om562/MPLABXProjects/PIC18/MCAL_Layer/Interrupt/mcal_interrupt_manager.c: 48: 
      +                              if ((INTCONbits.RBIE == 1) && (INTCONbits.RBIF == 1) && (PORTBbits.RB4 == 1) &&(RB4_
      +                          Flag == 1)) {
  1412   001080  A6F2               	btfss	242,3,c	;volatile
  1413   001082  EF45  F008         	goto	i2u294_41
  1414   001086  EF47  F008         	goto	i2u294_40
  1415   00108A                     i2u294_41:
  1416   00108A  EF62  F008         	goto	i2l3590
  1417   00108E                     i2u294_40:
  1418   00108E  A0F2               	btfss	242,0,c	;volatile
  1419   001090  EF4C  F008         	goto	i2u295_41
  1420   001094  EF4E  F008         	goto	i2u295_40
  1421   001098                     i2u295_41:
  1422   001098  EF62  F008         	goto	i2l3590
  1423   00109C                     i2u295_40:
  1424   00109C  A881               	btfss	129,4,c	;volatile
  1425   00109E  EF53  F008         	goto	i2u296_41
  1426   0010A2  EF55  F008         	goto	i2u296_40
  1427   0010A6                     i2u296_41:
  1428   0010A6  EF62  F008         	goto	i2l3590
  1429   0010AA                     i2u296_40:
  1430   0010AA  0422               	decf	_RB4_Flag^0,w,c
  1431   0010AC  A4D8               	btfss	status,2,c
  1432   0010AE  EF5B  F008         	goto	i2u297_41
  1433   0010B2  EF5D  F008         	goto	i2u297_40
  1434   0010B6                     i2u297_41:
  1435   0010B6  EF62  F008         	goto	i2l3590
  1436   0010BA                     i2u297_40:
  1437   0010BA                     
  1438                           ;C:/Users/Om562/MPLABXProjects/PIC18/MCAL_Layer/Interrupt/mcal_interrupt_manager.c: 49: 
      +                                  RB4_Flag = 0;
  1439   0010BA  0E00               	movlw	0
  1440   0010BC  6E22               	movwf	_RB4_Flag^0,c
  1441   0010BE                     
  1442                           ;C:/Users/Om562/MPLABXProjects/PIC18/MCAL_Layer/Interrupt/mcal_interrupt_manager.c: 50: 
      +                                  RB4_ISR(1);
  1443   0010BE  0E01               	movlw	1
  1444   0010C0  EC33  F00C         	call	_RB4_ISR
  1445   0010C4                     i2l3590:
  1446                           
  1447                           ;C:/Users/Om562/MPLABXProjects/PIC18/MCAL_Layer/Interrupt/mcal_interrupt_manager.c: 52: 
      +                              if ((INTCONbits.RBIE == 1) && (INTCONbits.RBIF == 1) && (PORTBbits.RB4 == 0) &&(RB4_
      +                          Flag == 0)) {
  1448   0010C4  A6F2               	btfss	242,3,c	;volatile
  1449   0010C6  EF67  F008         	goto	i2u298_41
  1450   0010CA  EF69  F008         	goto	i2u298_40
  1451   0010CE                     i2u298_41:
  1452   0010CE  EF84  F008         	goto	i2l3602
  1453   0010D2                     i2u298_40:
  1454   0010D2  A0F2               	btfss	242,0,c	;volatile
  1455   0010D4  EF6E  F008         	goto	i2u299_41
  1456   0010D8  EF70  F008         	goto	i2u299_40
  1457   0010DC                     i2u299_41:
  1458   0010DC  EF84  F008         	goto	i2l3602
  1459   0010E0                     i2u299_40:
  1460   0010E0  B881               	btfsc	129,4,c	;volatile
  1461   0010E2  EF75  F008         	goto	i2u300_41
  1462   0010E6  EF77  F008         	goto	i2u300_40
  1463   0010EA                     i2u300_41:
  1464   0010EA  EF84  F008         	goto	i2l3602
  1465   0010EE                     i2u300_40:
  1466   0010EE  5022               	movf	_RB4_Flag^0,w,c
  1467   0010F0  A4D8               	btfss	status,2,c
  1468   0010F2  EF7D  F008         	goto	i2u301_41
  1469   0010F6  EF7F  F008         	goto	i2u301_40
  1470   0010FA                     i2u301_41:
  1471   0010FA  EF84  F008         	goto	i2l3602
  1472   0010FE                     i2u301_40:
  1473   0010FE                     
  1474                           ;C:/Users/Om562/MPLABXProjects/PIC18/MCAL_Layer/Interrupt/mcal_interrupt_manager.c: 53: 
      +                                  RB4_Flag = 1;
  1475   0010FE  0E01               	movlw	1
  1476   001100  6E22               	movwf	_RB4_Flag^0,c
  1477   001102                     
  1478                           ;C:/Users/Om562/MPLABXProjects/PIC18/MCAL_Layer/Interrupt/mcal_interrupt_manager.c: 54: 
      +                                  RB4_ISR(0);
  1479   001102  0E00               	movlw	0
  1480   001104  EC33  F00C         	call	_RB4_ISR
  1481   001108                     i2l3602:
  1482                           
  1483                           ;C:/Users/Om562/MPLABXProjects/PIC18/MCAL_Layer/Interrupt/mcal_interrupt_manager.c: 57: 
      +                              if ((INTCONbits.RBIE == 1) && (INTCONbits.RBIF == 1) && (PORTBbits.RB5 == 1) &&(RB5_
      +                          Flag == 1)) {
  1484   001108  A6F2               	btfss	242,3,c	;volatile
  1485   00110A  EF89  F008         	goto	i2u302_41
  1486   00110E  EF8B  F008         	goto	i2u302_40
  1487   001112                     i2u302_41:
  1488   001112  EFA6  F008         	goto	i2l3614
  1489   001116                     i2u302_40:
  1490   001116  A0F2               	btfss	242,0,c	;volatile
  1491   001118  EF90  F008         	goto	i2u303_41
  1492   00111C  EF92  F008         	goto	i2u303_40
  1493   001120                     i2u303_41:
  1494   001120  EFA6  F008         	goto	i2l3614
  1495   001124                     i2u303_40:
  1496   001124  AA81               	btfss	129,5,c	;volatile
  1497   001126  EF97  F008         	goto	i2u304_41
  1498   00112A  EF99  F008         	goto	i2u304_40
  1499   00112E                     i2u304_41:
  1500   00112E  EFA6  F008         	goto	i2l3614
  1501   001132                     i2u304_40:
  1502   001132  0421               	decf	_RB5_Flag^0,w,c
  1503   001134  A4D8               	btfss	status,2,c
  1504   001136  EF9F  F008         	goto	i2u305_41
  1505   00113A  EFA1  F008         	goto	i2u305_40
  1506   00113E                     i2u305_41:
  1507   00113E  EFA6  F008         	goto	i2l3614
  1508   001142                     i2u305_40:
  1509   001142                     
  1510                           ;C:/Users/Om562/MPLABXProjects/PIC18/MCAL_Layer/Interrupt/mcal_interrupt_manager.c: 58: 
      +                                  RB5_Flag = 0;
  1511   001142  0E00               	movlw	0
  1512   001144  6E21               	movwf	_RB5_Flag^0,c
  1513   001146                     
  1514                           ;C:/Users/Om562/MPLABXProjects/PIC18/MCAL_Layer/Interrupt/mcal_interrupt_manager.c: 59: 
      +                                  RB5_ISR(1);
  1515   001146  0E01               	movlw	1
  1516   001148  ECF6  F00B         	call	_RB5_ISR
  1517   00114C                     i2l3614:
  1518                           
  1519                           ;C:/Users/Om562/MPLABXProjects/PIC18/MCAL_Layer/Interrupt/mcal_interrupt_manager.c: 61: 
      +                              if ((INTCONbits.RBIE == 1) && (INTCONbits.RBIF == 1) && (PORTBbits.RB5 == 0) &&(RB5_
      +                          Flag == 0)) {
  1520   00114C  A6F2               	btfss	242,3,c	;volatile
  1521   00114E  EFAB  F008         	goto	i2u306_41
  1522   001152  EFAD  F008         	goto	i2u306_40
  1523   001156                     i2u306_41:
  1524   001156  EFC8  F008         	goto	i2l3626
  1525   00115A                     i2u306_40:
  1526   00115A  A0F2               	btfss	242,0,c	;volatile
  1527   00115C  EFB2  F008         	goto	i2u307_41
  1528   001160  EFB4  F008         	goto	i2u307_40
  1529   001164                     i2u307_41:
  1530   001164  EFC8  F008         	goto	i2l3626
  1531   001168                     i2u307_40:
  1532   001168  BA81               	btfsc	129,5,c	;volatile
  1533   00116A  EFB9  F008         	goto	i2u308_41
  1534   00116E  EFBB  F008         	goto	i2u308_40
  1535   001172                     i2u308_41:
  1536   001172  EFC8  F008         	goto	i2l3626
  1537   001176                     i2u308_40:
  1538   001176  5021               	movf	_RB5_Flag^0,w,c
  1539   001178  A4D8               	btfss	status,2,c
  1540   00117A  EFC1  F008         	goto	i2u309_41
  1541   00117E  EFC3  F008         	goto	i2u309_40
  1542   001182                     i2u309_41:
  1543   001182  EFC8  F008         	goto	i2l3626
  1544   001186                     i2u309_40:
  1545   001186                     
  1546                           ;C:/Users/Om562/MPLABXProjects/PIC18/MCAL_Layer/Interrupt/mcal_interrupt_manager.c: 62: 
      +                                  RB5_Flag = 1;
  1547   001186  0E01               	movlw	1
  1548   001188  6E21               	movwf	_RB5_Flag^0,c
  1549   00118A                     
  1550                           ;C:/Users/Om562/MPLABXProjects/PIC18/MCAL_Layer/Interrupt/mcal_interrupt_manager.c: 63: 
      +                                  RB5_ISR(0);
  1551   00118A  0E00               	movlw	0
  1552   00118C  ECF6  F00B         	call	_RB5_ISR
  1553   001190                     i2l3626:
  1554                           
  1555                           ;C:/Users/Om562/MPLABXProjects/PIC18/MCAL_Layer/Interrupt/mcal_interrupt_manager.c: 67: 
      +                              if ((INTCONbits.RBIE == 1) && (INTCONbits.RBIF == 1) && (PORTBbits.RB6 == 1) &&(RB6_
      +                          Flag == 1)) {
  1556   001190  A6F2               	btfss	242,3,c	;volatile
  1557   001192  EFCD  F008         	goto	i2u310_41
  1558   001196  EFCF  F008         	goto	i2u310_40
  1559   00119A                     i2u310_41:
  1560   00119A  EFEA  F008         	goto	i2l3638
  1561   00119E                     i2u310_40:
  1562   00119E  A0F2               	btfss	242,0,c	;volatile
  1563   0011A0  EFD4  F008         	goto	i2u311_41
  1564   0011A4  EFD6  F008         	goto	i2u311_40
  1565   0011A8                     i2u311_41:
  1566   0011A8  EFEA  F008         	goto	i2l3638
  1567   0011AC                     i2u311_40:
  1568   0011AC  AC81               	btfss	129,6,c	;volatile
  1569   0011AE  EFDB  F008         	goto	i2u312_41
  1570   0011B2  EFDD  F008         	goto	i2u312_40
  1571   0011B6                     i2u312_41:
  1572   0011B6  EFEA  F008         	goto	i2l3638
  1573   0011BA                     i2u312_40:
  1574   0011BA  0420               	decf	_RB6_Flag^0,w,c
  1575   0011BC  A4D8               	btfss	status,2,c
  1576   0011BE  EFE3  F008         	goto	i2u313_41
  1577   0011C2  EFE5  F008         	goto	i2u313_40
  1578   0011C6                     i2u313_41:
  1579   0011C6  EFEA  F008         	goto	i2l3638
  1580   0011CA                     i2u313_40:
  1581   0011CA                     
  1582                           ;C:/Users/Om562/MPLABXProjects/PIC18/MCAL_Layer/Interrupt/mcal_interrupt_manager.c: 68: 
      +                                  RB6_Flag = 0;
  1583   0011CA  0E00               	movlw	0
  1584   0011CC  6E20               	movwf	_RB6_Flag^0,c
  1585   0011CE                     
  1586                           ;C:/Users/Om562/MPLABXProjects/PIC18/MCAL_Layer/Interrupt/mcal_interrupt_manager.c: 69: 
      +                                  RB6_ISR(1);
  1587   0011CE  0E01               	movlw	1
  1588   0011D0  ECB9  F00B         	call	_RB6_ISR
  1589   0011D4                     i2l3638:
  1590                           
  1591                           ;C:/Users/Om562/MPLABXProjects/PIC18/MCAL_Layer/Interrupt/mcal_interrupt_manager.c: 71: 
      +                              if ((INTCONbits.RBIE == 1) && (INTCONbits.RBIF == 1) && (PORTBbits.RB6 == 0) &&(RB6_
      +                          Flag == 0)) {
  1592   0011D4  A6F2               	btfss	242,3,c	;volatile
  1593   0011D6  EFEF  F008         	goto	i2u314_41
  1594   0011DA  EFF1  F008         	goto	i2u314_40
  1595   0011DE                     i2u314_41:
  1596   0011DE  EF0C  F009         	goto	i2l3650
  1597   0011E2                     i2u314_40:
  1598   0011E2  A0F2               	btfss	242,0,c	;volatile
  1599   0011E4  EFF6  F008         	goto	i2u315_41
  1600   0011E8  EFF8  F008         	goto	i2u315_40
  1601   0011EC                     i2u315_41:
  1602   0011EC  EF0C  F009         	goto	i2l3650
  1603   0011F0                     i2u315_40:
  1604   0011F0  BC81               	btfsc	129,6,c	;volatile
  1605   0011F2  EFFD  F008         	goto	i2u316_41
  1606   0011F6  EFFF  F008         	goto	i2u316_40
  1607   0011FA                     i2u316_41:
  1608   0011FA  EF0C  F009         	goto	i2l3650
  1609   0011FE                     i2u316_40:
  1610   0011FE  5020               	movf	_RB6_Flag^0,w,c
  1611   001200  A4D8               	btfss	status,2,c
  1612   001202  EF05  F009         	goto	i2u317_41
  1613   001206  EF07  F009         	goto	i2u317_40
  1614   00120A                     i2u317_41:
  1615   00120A  EF0C  F009         	goto	i2l3650
  1616   00120E                     i2u317_40:
  1617   00120E                     
  1618                           ;C:/Users/Om562/MPLABXProjects/PIC18/MCAL_Layer/Interrupt/mcal_interrupt_manager.c: 72: 
      +                                  RB6_Flag = 1;
  1619   00120E  0E01               	movlw	1
  1620   001210  6E20               	movwf	_RB6_Flag^0,c
  1621   001212                     
  1622                           ;C:/Users/Om562/MPLABXProjects/PIC18/MCAL_Layer/Interrupt/mcal_interrupt_manager.c: 73: 
      +                                  RB6_ISR(0);
  1623   001212  0E00               	movlw	0
  1624   001214  ECB9  F00B         	call	_RB6_ISR
  1625   001218                     i2l3650:
  1626                           
  1627                           ;C:/Users/Om562/MPLABXProjects/PIC18/MCAL_Layer/Interrupt/mcal_interrupt_manager.c: 77: 
      +                              if ((INTCONbits.RBIE == 1) && (INTCONbits.RBIF == 1) && (PORTBbits.RB7 == 1) &&(RB7_
      +                          Flag == 1)) {
  1628   001218  A6F2               	btfss	242,3,c	;volatile
  1629   00121A  EF11  F009         	goto	i2u318_41
  1630   00121E  EF13  F009         	goto	i2u318_40
  1631   001222                     i2u318_41:
  1632   001222  EF2E  F009         	goto	i2l3662
  1633   001226                     i2u318_40:
  1634   001226  A0F2               	btfss	242,0,c	;volatile
  1635   001228  EF18  F009         	goto	i2u319_41
  1636   00122C  EF1A  F009         	goto	i2u319_40
  1637   001230                     i2u319_41:
  1638   001230  EF2E  F009         	goto	i2l3662
  1639   001234                     i2u319_40:
  1640   001234  AE81               	btfss	129,7,c	;volatile
  1641   001236  EF1F  F009         	goto	i2u320_41
  1642   00123A  EF21  F009         	goto	i2u320_40
  1643   00123E                     i2u320_41:
  1644   00123E  EF2E  F009         	goto	i2l3662
  1645   001242                     i2u320_40:
  1646   001242  041F               	decf	_RB7_Flag^0,w,c
  1647   001244  A4D8               	btfss	status,2,c
  1648   001246  EF27  F009         	goto	i2u321_41
  1649   00124A  EF29  F009         	goto	i2u321_40
  1650   00124E                     i2u321_41:
  1651   00124E  EF2E  F009         	goto	i2l3662
  1652   001252                     i2u321_40:
  1653   001252                     
  1654                           ;C:/Users/Om562/MPLABXProjects/PIC18/MCAL_Layer/Interrupt/mcal_interrupt_manager.c: 78: 
      +                                  RB7_Flag = 0;
  1655   001252  0E00               	movlw	0
  1656   001254  6E1F               	movwf	_RB7_Flag^0,c
  1657   001256                     
  1658                           ;C:/Users/Om562/MPLABXProjects/PIC18/MCAL_Layer/Interrupt/mcal_interrupt_manager.c: 79: 
      +                                  RB7_ISR(1);
  1659   001256  0E01               	movlw	1
  1660   001258  EC7C  F00B         	call	_RB7_ISR
  1661   00125C                     i2l3662:
  1662                           
  1663                           ;C:/Users/Om562/MPLABXProjects/PIC18/MCAL_Layer/Interrupt/mcal_interrupt_manager.c: 81: 
      +                              if ((INTCONbits.RBIE == 1) && (INTCONbits.RBIF == 1) && (PORTBbits.RB7 == 0) &&(RB7_
      +                          Flag == 0)) {
  1664   00125C  A6F2               	btfss	242,3,c	;volatile
  1665   00125E  EF33  F009         	goto	i2u322_41
  1666   001262  EF35  F009         	goto	i2u322_40
  1667   001266                     i2u322_41:
  1668   001266  EF50  F009         	goto	i2l660
  1669   00126A                     i2u322_40:
  1670   00126A  A0F2               	btfss	242,0,c	;volatile
  1671   00126C  EF3A  F009         	goto	i2u323_41
  1672   001270  EF3C  F009         	goto	i2u323_40
  1673   001274                     i2u323_41:
  1674   001274  EF50  F009         	goto	i2l660
  1675   001278                     i2u323_40:
  1676   001278  BE81               	btfsc	129,7,c	;volatile
  1677   00127A  EF41  F009         	goto	i2u324_41
  1678   00127E  EF43  F009         	goto	i2u324_40
  1679   001282                     i2u324_41:
  1680   001282  EF50  F009         	goto	i2l660
  1681   001286                     i2u324_40:
  1682   001286  501F               	movf	_RB7_Flag^0,w,c
  1683   001288  A4D8               	btfss	status,2,c
  1684   00128A  EF49  F009         	goto	i2u325_41
  1685   00128E  EF4B  F009         	goto	i2u325_40
  1686   001292                     i2u325_41:
  1687   001292  EF50  F009         	goto	i2l660
  1688   001296                     i2u325_40:
  1689   001296                     
  1690                           ;C:/Users/Om562/MPLABXProjects/PIC18/MCAL_Layer/Interrupt/mcal_interrupt_manager.c: 82: 
      +                                  RB7_Flag = 1;
  1691   001296  0E01               	movlw	1
  1692   001298  6E1F               	movwf	_RB7_Flag^0,c
  1693   00129A                     
  1694                           ;C:/Users/Om562/MPLABXProjects/PIC18/MCAL_Layer/Interrupt/mcal_interrupt_manager.c: 83: 
      +                                  RB7_ISR(0);
  1695   00129A  0E00               	movlw	0
  1696   00129C  EC7C  F00B         	call	_RB7_ISR
  1697   0012A0                     i2l660:
  1698   0012A0  C03B  FFF4         	movff	??_InterruptManager+5,prodh
  1699   0012A4  C03A  FFF3         	movff	??_InterruptManager+4,prodl
  1700   0012A8  C039  FFDA         	movff	??_InterruptManager+3,fsr2h
  1701   0012AC  C038  FFD9         	movff	??_InterruptManager+2,fsr2l
  1702   0012B0  C037  FFFB         	movff	??_InterruptManager+1,pclatu
  1703   0012B4  C036  FFFA         	movff	??_InterruptManager,pclath
  1704   0012B8  926C               	bcf	int$flags,1,c	;clear compiler interrupt flag (level 2)
  1705   0012BA  0011               	retfie		f
  1706   0012BC                     __end_of_InterruptManager:
  1707                           	callstack 0
  1708                           
  1709 ;; *************** function _RB7_ISR *****************
  1710 ;; Defined at:
  1711 ;;		line 88 in file "C:/Users/Om562/MPLABXProjects/PIC18/MCAL_Layer/Interrupt/mcal_external_interrupt.c"
  1712 ;; Parameters:    Size  Location     Type
  1713 ;;  src             1    wreg     unsigned char 
  1714 ;; Auto vars:     Size  Location     Type
  1715 ;;  src             1   11[COMRAM] unsigned char 
  1716 ;; Return value:  Size  Location     Type
  1717 ;;                  1    wreg      void 
  1718 ;; Registers used:
  1719 ;;		wreg, fsr2l, fsr2h, status,2, status,0, pcl, pclath, pclatu, tosl, prodl, prodh, cstack
  1720 ;; Tracked objects:
  1721 ;;		On entry : 0/0
  1722 ;;		On exit  : 0/0
  1723 ;;		Unchanged: 0/0
  1724 ;; Data sizes:     COMRAM   BANK0   BANK1   BANK2   BANK3   BANK4   BANK5   BANK6   BANK7   BANK8   BANK9  BANK10  BANK1
      +1  BANK12  BANK13  BANK14  BANK15
  1725 ;;      Params:         0       0       0       0       0       0       0       0       0       0       0       0       
      +0       0       0       0       0
  1726 ;;      Locals:         1       0       0       0       0       0       0       0       0       0       0       0       
      +0       0       0       0       0
  1727 ;;      Temps:          0       0       0       0       0       0       0       0       0       0       0       0       
      +0       0       0       0       0
  1728 ;;      Totals:         1       0       0       0       0       0       0       0       0       0       0       0       
      +0       0       0       0       0
  1729 ;;Total ram usage:        1 bytes
  1730 ;; Hardware stack levels used: 1
  1731 ;; Hardware stack levels required when called: 3
  1732 ;; This function calls:
  1733 ;;		NULL
  1734 ;;		_sssss
  1735 ;; This function is called by:
  1736 ;;		_InterruptManager
  1737 ;; This function uses a non-reentrant model
  1738 ;;
  1739                           
  1740                           	psect	text7
  1741   0016F8                     __ptext7:
  1742                           	callstack 0
  1743   0016F8                     _RB7_ISR:
  1744                           	callstack 23
  1745                           
  1746                           ;incstack = 0
  1747                           ;RB7_ISR@src stored from wreg
  1748   0016F8  6E35               	movwf	RB7_ISR@src^0,c
  1749   0016FA                     
  1750                           ;C:/Users/Om562/MPLABXProjects/PIC18/MCAL_Layer/Interrupt/mcal_external_interrupt.c: 89:
      +                               (INTCONbits.RBIF = 0);
  1751   0016FA  90F2               	bcf	242,0,c	;volatile
  1752   0016FC                     
  1753                           ;C:/Users/Om562/MPLABXProjects/PIC18/MCAL_Layer/Interrupt/mcal_external_interrupt.c: 90:
      +                               if (src == 0)
  1754   0016FC  5035               	movf	RB7_ISR@src^0,w,c
  1755   0016FE  A4D8               	btfss	status,2,c
  1756   001700  EF84  F00B         	goto	i2u237_41
  1757   001704  EF86  F00B         	goto	i2u237_40
  1758   001708                     i2u237_41:
  1759   001708  EF9B  F00B         	goto	i2l3036
  1760   00170C                     i2u237_40:
  1761   00170C                     
  1762                           ;C:/Users/Om562/MPLABXProjects/PIC18/MCAL_Layer/Interrupt/mcal_external_interrupt.c: 91:
      +                                   if (RB7_CallBack_LOW)
  1763   00170C  504F               	movf	_RB7_CallBack_LOW^0,w,c
  1764   00170E  1050               	iorwf	(_RB7_CallBack_LOW+1)^0,w,c
  1765   001710  B4D8               	btfsc	status,2,c
  1766   001712  EF8D  F00B         	goto	i2u238_41
  1767   001716  EF8F  F00B         	goto	i2u238_40
  1768   00171A                     i2u238_41:
  1769   00171A  EF9B  F00B         	goto	i2l3036
  1770   00171E                     i2u238_40:
  1771   00171E                     
  1772                           ;C:/Users/Om562/MPLABXProjects/PIC18/MCAL_Layer/Interrupt/mcal_external_interrupt.c: 92:
      +                                       RB7_CallBack_LOW();
  1773   00171E  D802               	call	i2u239_48
  1774   001720  EF9B  F00B         	goto	i2u239_49
  1775   001724                     i2u239_48:
  1776   001724  0005               	push	
  1777   001726  6EFA               	movwf	pclath,c
  1778   001728  504F               	movf	_RB7_CallBack_LOW^0,w,c
  1779   00172A  6EFD               	movwf	tosl,c
  1780   00172C  5050               	movf	(_RB7_CallBack_LOW+1)^0,w,c
  1781   00172E  6EFE               	movwf	tosh,c
  1782   001730  6AFF               	clrf	tosu,c
  1783   001732  50FA               	movf	pclath,w,c
  1784   001734  0012               	return		;indir
  1785   001736                     i2u239_49:
  1786   001736                     i2l3036:
  1787                           
  1788                           ;C:/Users/Om562/MPLABXProjects/PIC18/MCAL_Layer/Interrupt/mcal_external_interrupt.c: 93:
      +                               if (src == 1)
  1789   001736  0435               	decf	RB7_ISR@src^0,w,c
  1790   001738  A4D8               	btfss	status,2,c
  1791   00173A  EFA1  F00B         	goto	i2u240_41
  1792   00173E  EFA3  F00B         	goto	i2u240_40
  1793   001742                     i2u240_41:
  1794   001742  EFB8  F00B         	goto	i2l513
  1795   001746                     i2u240_40:
  1796   001746                     
  1797                           ;C:/Users/Om562/MPLABXProjects/PIC18/MCAL_Layer/Interrupt/mcal_external_interrupt.c: 94:
      +                                   if (RB7_CallBack_HIGH)
  1798   001746  5057               	movf	_RB7_CallBack_HIGH^0,w,c
  1799   001748  1058               	iorwf	(_RB7_CallBack_HIGH+1)^0,w,c
  1800   00174A  B4D8               	btfsc	status,2,c
  1801   00174C  EFAA  F00B         	goto	i2u241_41
  1802   001750  EFAC  F00B         	goto	i2u241_40
  1803   001754                     i2u241_41:
  1804   001754  EFB8  F00B         	goto	i2l513
  1805   001758                     i2u241_40:
  1806   001758                     
  1807                           ;C:/Users/Om562/MPLABXProjects/PIC18/MCAL_Layer/Interrupt/mcal_external_interrupt.c: 95:
      +                                       RB7_CallBack_HIGH();
  1808   001758  D802               	call	i2u242_48
  1809   00175A  EFB8  F00B         	goto	i2u242_49
  1810   00175E                     i2u242_48:
  1811   00175E  0005               	push	
  1812   001760  6EFA               	movwf	pclath,c
  1813   001762  5057               	movf	_RB7_CallBack_HIGH^0,w,c
  1814   001764  6EFD               	movwf	tosl,c
  1815   001766  5058               	movf	(_RB7_CallBack_HIGH+1)^0,w,c
  1816   001768  6EFE               	movwf	tosh,c
  1817   00176A  6AFF               	clrf	tosu,c
  1818   00176C  50FA               	movf	pclath,w,c
  1819   00176E  0012               	return		;indir
  1820   001770                     i2u242_49:
  1821   001770                     i2l513:
  1822   001770  0012               	return		;funcret
  1823   001772                     __end_of_RB7_ISR:
  1824                           	callstack 0
  1825                           
  1826 ;; *************** function _RB6_ISR *****************
  1827 ;; Defined at:
  1828 ;;		line 78 in file "C:/Users/Om562/MPLABXProjects/PIC18/MCAL_Layer/Interrupt/mcal_external_interrupt.c"
  1829 ;; Parameters:    Size  Location     Type
  1830 ;;  src             1    wreg     unsigned char 
  1831 ;; Auto vars:     Size  Location     Type
  1832 ;;  src             1   11[COMRAM] unsigned char 
  1833 ;; Return value:  Size  Location     Type
  1834 ;;                  1    wreg      void 
  1835 ;; Registers used:
  1836 ;;		wreg, fsr2l, fsr2h, status,2, status,0, pcl, pclath, pclatu, tosl, prodl, prodh, cstack
  1837 ;; Tracked objects:
  1838 ;;		On entry : 0/0
  1839 ;;		On exit  : 0/0
  1840 ;;		Unchanged: 0/0
  1841 ;; Data sizes:     COMRAM   BANK0   BANK1   BANK2   BANK3   BANK4   BANK5   BANK6   BANK7   BANK8   BANK9  BANK10  BANK1
      +1  BANK12  BANK13  BANK14  BANK15
  1842 ;;      Params:         0       0       0       0       0       0       0       0       0       0       0       0       
      +0       0       0       0       0
  1843 ;;      Locals:         1       0       0       0       0       0       0       0       0       0       0       0       
      +0       0       0       0       0
  1844 ;;      Temps:          0       0       0       0       0       0       0       0       0       0       0       0       
      +0       0       0       0       0
  1845 ;;      Totals:         1       0       0       0       0       0       0       0       0       0       0       0       
      +0       0       0       0       0
  1846 ;;Total ram usage:        1 bytes
  1847 ;; Hardware stack levels used: 1
  1848 ;; Hardware stack levels required when called: 3
  1849 ;; This function calls:
  1850 ;;		NULL
  1851 ;;		_sssss
  1852 ;; This function is called by:
  1853 ;;		_InterruptManager
  1854 ;; This function uses a non-reentrant model
  1855 ;;
  1856                           
  1857                           	psect	text8
  1858   001772                     __ptext8:
  1859                           	callstack 0
  1860   001772                     _RB6_ISR:
  1861                           	callstack 23
  1862                           
  1863                           ;incstack = 0
  1864                           ;RB6_ISR@src stored from wreg
  1865   001772  6E35               	movwf	RB6_ISR@src^0,c
  1866   001774                     
  1867                           ;C:/Users/Om562/MPLABXProjects/PIC18/MCAL_Layer/Interrupt/mcal_external_interrupt.c: 79:
      +                               (INTCONbits.RBIF = 0);
  1868   001774  90F2               	bcf	242,0,c	;volatile
  1869   001776                     
  1870                           ;C:/Users/Om562/MPLABXProjects/PIC18/MCAL_Layer/Interrupt/mcal_external_interrupt.c: 80:
      +                               if (src == 0)
  1871   001776  5035               	movf	RB6_ISR@src^0,w,c
  1872   001778  A4D8               	btfss	status,2,c
  1873   00177A  EFC1  F00B         	goto	i2u231_41
  1874   00177E  EFC3  F00B         	goto	i2u231_40
  1875   001782                     i2u231_41:
  1876   001782  EFD8  F00B         	goto	i2l3022
  1877   001786                     i2u231_40:
  1878   001786                     
  1879                           ;C:/Users/Om562/MPLABXProjects/PIC18/MCAL_Layer/Interrupt/mcal_external_interrupt.c: 81:
      +                                   if (RB6_CallBack_LOW)
  1880   001786  5051               	movf	_RB6_CallBack_LOW^0,w,c
  1881   001788  1052               	iorwf	(_RB6_CallBack_LOW+1)^0,w,c
  1882   00178A  B4D8               	btfsc	status,2,c
  1883   00178C  EFCA  F00B         	goto	i2u232_41
  1884   001790  EFCC  F00B         	goto	i2u232_40
  1885   001794                     i2u232_41:
  1886   001794  EFD8  F00B         	goto	i2l3022
  1887   001798                     i2u232_40:
  1888   001798                     
  1889                           ;C:/Users/Om562/MPLABXProjects/PIC18/MCAL_Layer/Interrupt/mcal_external_interrupt.c: 82:
      +                                       RB6_CallBack_LOW();
  1890   001798  D802               	call	i2u233_48
  1891   00179A  EFD8  F00B         	goto	i2u233_49
  1892   00179E                     i2u233_48:
  1893   00179E  0005               	push	
  1894   0017A0  6EFA               	movwf	pclath,c
  1895   0017A2  5051               	movf	_RB6_CallBack_LOW^0,w,c
  1896   0017A4  6EFD               	movwf	tosl,c
  1897   0017A6  5052               	movf	(_RB6_CallBack_LOW+1)^0,w,c
  1898   0017A8  6EFE               	movwf	tosh,c
  1899   0017AA  6AFF               	clrf	tosu,c
  1900   0017AC  50FA               	movf	pclath,w,c
  1901   0017AE  0012               	return		;indir
  1902   0017B0                     i2u233_49:
  1903   0017B0                     i2l3022:
  1904                           
  1905                           ;C:/Users/Om562/MPLABXProjects/PIC18/MCAL_Layer/Interrupt/mcal_external_interrupt.c: 83:
      +                               if (src == 1)
  1906   0017B0  0435               	decf	RB6_ISR@src^0,w,c
  1907   0017B2  A4D8               	btfss	status,2,c
  1908   0017B4  EFDE  F00B         	goto	i2u234_41
  1909   0017B8  EFE0  F00B         	goto	i2u234_40
  1910   0017BC                     i2u234_41:
  1911   0017BC  EFF5  F00B         	goto	i2l506
  1912   0017C0                     i2u234_40:
  1913   0017C0                     
  1914                           ;C:/Users/Om562/MPLABXProjects/PIC18/MCAL_Layer/Interrupt/mcal_external_interrupt.c: 84:
      +                                   if (RB6_CallBack_HIGH)
  1915   0017C0  5059               	movf	_RB6_CallBack_HIGH^0,w,c
  1916   0017C2  105A               	iorwf	(_RB6_CallBack_HIGH+1)^0,w,c
  1917   0017C4  B4D8               	btfsc	status,2,c
  1918   0017C6  EFE7  F00B         	goto	i2u235_41
  1919   0017CA  EFE9  F00B         	goto	i2u235_40
  1920   0017CE                     i2u235_41:
  1921   0017CE  EFF5  F00B         	goto	i2l506
  1922   0017D2                     i2u235_40:
  1923   0017D2                     
  1924                           ;C:/Users/Om562/MPLABXProjects/PIC18/MCAL_Layer/Interrupt/mcal_external_interrupt.c: 85:
      +                                       RB6_CallBack_HIGH();
  1925   0017D2  D802               	call	i2u236_48
  1926   0017D4  EFF5  F00B         	goto	i2u236_49
  1927   0017D8                     i2u236_48:
  1928   0017D8  0005               	push	
  1929   0017DA  6EFA               	movwf	pclath,c
  1930   0017DC  5059               	movf	_RB6_CallBack_HIGH^0,w,c
  1931   0017DE  6EFD               	movwf	tosl,c
  1932   0017E0  505A               	movf	(_RB6_CallBack_HIGH+1)^0,w,c
  1933   0017E2  6EFE               	movwf	tosh,c
  1934   0017E4  6AFF               	clrf	tosu,c
  1935   0017E6  50FA               	movf	pclath,w,c
  1936   0017E8  0012               	return		;indir
  1937   0017EA                     i2u236_49:
  1938   0017EA                     i2l506:
  1939   0017EA  0012               	return		;funcret
  1940   0017EC                     __end_of_RB6_ISR:
  1941                           	callstack 0
  1942                           
  1943 ;; *************** function _RB5_ISR *****************
  1944 ;; Defined at:
  1945 ;;		line 68 in file "C:/Users/Om562/MPLABXProjects/PIC18/MCAL_Layer/Interrupt/mcal_external_interrupt.c"
  1946 ;; Parameters:    Size  Location     Type
  1947 ;;  src             1    wreg     unsigned char 
  1948 ;; Auto vars:     Size  Location     Type
  1949 ;;  src             1   11[COMRAM] unsigned char 
  1950 ;; Return value:  Size  Location     Type
  1951 ;;                  1    wreg      void 
  1952 ;; Registers used:
  1953 ;;		wreg, fsr2l, fsr2h, status,2, status,0, pcl, pclath, pclatu, tosl, prodl, prodh, cstack
  1954 ;; Tracked objects:
  1955 ;;		On entry : 0/0
  1956 ;;		On exit  : 0/0
  1957 ;;		Unchanged: 0/0
  1958 ;; Data sizes:     COMRAM   BANK0   BANK1   BANK2   BANK3   BANK4   BANK5   BANK6   BANK7   BANK8   BANK9  BANK10  BANK1
      +1  BANK12  BANK13  BANK14  BANK15
  1959 ;;      Params:         0       0       0       0       0       0       0       0       0       0       0       0       
      +0       0       0       0       0
  1960 ;;      Locals:         1       0       0       0       0       0       0       0       0       0       0       0       
      +0       0       0       0       0
  1961 ;;      Temps:          0       0       0       0       0       0       0       0       0       0       0       0       
      +0       0       0       0       0
  1962 ;;      Totals:         1       0       0       0       0       0       0       0       0       0       0       0       
      +0       0       0       0       0
  1963 ;;Total ram usage:        1 bytes
  1964 ;; Hardware stack levels used: 1
  1965 ;; Hardware stack levels required when called: 3
  1966 ;; This function calls:
  1967 ;;		NULL
  1968 ;;		_sssss
  1969 ;; This function is called by:
  1970 ;;		_InterruptManager
  1971 ;; This function uses a non-reentrant model
  1972 ;;
  1973                           
  1974                           	psect	text9
  1975   0017EC                     __ptext9:
  1976                           	callstack 0
  1977   0017EC                     _RB5_ISR:
  1978                           	callstack 23
  1979                           
  1980                           ;incstack = 0
  1981                           ;RB5_ISR@src stored from wreg
  1982   0017EC  6E35               	movwf	RB5_ISR@src^0,c
  1983   0017EE                     
  1984                           ;C:/Users/Om562/MPLABXProjects/PIC18/MCAL_Layer/Interrupt/mcal_external_interrupt.c: 69:
      +                               (INTCONbits.RBIF = 0);
  1985   0017EE  90F2               	bcf	242,0,c	;volatile
  1986   0017F0                     
  1987                           ;C:/Users/Om562/MPLABXProjects/PIC18/MCAL_Layer/Interrupt/mcal_external_interrupt.c: 70:
      +                               if (src == 0)
  1988   0017F0  5035               	movf	RB5_ISR@src^0,w,c
  1989   0017F2  A4D8               	btfss	status,2,c
  1990   0017F4  EFFE  F00B         	goto	i2u225_41
  1991   0017F8  EF00  F00C         	goto	i2u225_40
  1992   0017FC                     i2u225_41:
  1993   0017FC  EF15  F00C         	goto	i2l3008
  1994   001800                     i2u225_40:
  1995   001800                     
  1996                           ;C:/Users/Om562/MPLABXProjects/PIC18/MCAL_Layer/Interrupt/mcal_external_interrupt.c: 71:
      +                                   if (RB5_CallBack_LOW)
  1997   001800  5053               	movf	_RB5_CallBack_LOW^0,w,c
  1998   001802  1054               	iorwf	(_RB5_CallBack_LOW+1)^0,w,c
  1999   001804  B4D8               	btfsc	status,2,c
  2000   001806  EF07  F00C         	goto	i2u226_41
  2001   00180A  EF09  F00C         	goto	i2u226_40
  2002   00180E                     i2u226_41:
  2003   00180E  EF15  F00C         	goto	i2l3008
  2004   001812                     i2u226_40:
  2005   001812                     
  2006                           ;C:/Users/Om562/MPLABXProjects/PIC18/MCAL_Layer/Interrupt/mcal_external_interrupt.c: 72:
      +                                       RB5_CallBack_LOW();
  2007   001812  D802               	call	i2u227_48
  2008   001814  EF15  F00C         	goto	i2u227_49
  2009   001818                     i2u227_48:
  2010   001818  0005               	push	
  2011   00181A  6EFA               	movwf	pclath,c
  2012   00181C  5053               	movf	_RB5_CallBack_LOW^0,w,c
  2013   00181E  6EFD               	movwf	tosl,c
  2014   001820  5054               	movf	(_RB5_CallBack_LOW+1)^0,w,c
  2015   001822  6EFE               	movwf	tosh,c
  2016   001824  6AFF               	clrf	tosu,c
  2017   001826  50FA               	movf	pclath,w,c
  2018   001828  0012               	return		;indir
  2019   00182A                     i2u227_49:
  2020   00182A                     i2l3008:
  2021                           
  2022                           ;C:/Users/Om562/MPLABXProjects/PIC18/MCAL_Layer/Interrupt/mcal_external_interrupt.c: 73:
      +                               if (src == 1)
  2023   00182A  0435               	decf	RB5_ISR@src^0,w,c
  2024   00182C  A4D8               	btfss	status,2,c
  2025   00182E  EF1B  F00C         	goto	i2u228_41
  2026   001832  EF1D  F00C         	goto	i2u228_40
  2027   001836                     i2u228_41:
  2028   001836  EF32  F00C         	goto	i2l499
  2029   00183A                     i2u228_40:
  2030   00183A                     
  2031                           ;C:/Users/Om562/MPLABXProjects/PIC18/MCAL_Layer/Interrupt/mcal_external_interrupt.c: 74:
      +                                   if (RB5_CallBack_HIGH)
  2032   00183A  505B               	movf	_RB5_CallBack_HIGH^0,w,c
  2033   00183C  105C               	iorwf	(_RB5_CallBack_HIGH+1)^0,w,c
  2034   00183E  B4D8               	btfsc	status,2,c
  2035   001840  EF24  F00C         	goto	i2u229_41
  2036   001844  EF26  F00C         	goto	i2u229_40
  2037   001848                     i2u229_41:
  2038   001848  EF32  F00C         	goto	i2l499
  2039   00184C                     i2u229_40:
  2040   00184C                     
  2041                           ;C:/Users/Om562/MPLABXProjects/PIC18/MCAL_Layer/Interrupt/mcal_external_interrupt.c: 75:
      +                                       RB5_CallBack_HIGH();
  2042   00184C  D802               	call	i2u230_48
  2043   00184E  EF32  F00C         	goto	i2u230_49
  2044   001852                     i2u230_48:
  2045   001852  0005               	push	
  2046   001854  6EFA               	movwf	pclath,c
  2047   001856  505B               	movf	_RB5_CallBack_HIGH^0,w,c
  2048   001858  6EFD               	movwf	tosl,c
  2049   00185A  505C               	movf	(_RB5_CallBack_HIGH+1)^0,w,c
  2050   00185C  6EFE               	movwf	tosh,c
  2051   00185E  6AFF               	clrf	tosu,c
  2052   001860  50FA               	movf	pclath,w,c
  2053   001862  0012               	return		;indir
  2054   001864                     i2u230_49:
  2055   001864                     i2l499:
  2056   001864  0012               	return		;funcret
  2057   001866                     __end_of_RB5_ISR:
  2058                           	callstack 0
  2059                           
  2060 ;; *************** function _RB4_ISR *****************
  2061 ;; Defined at:
  2062 ;;		line 58 in file "C:/Users/Om562/MPLABXProjects/PIC18/MCAL_Layer/Interrupt/mcal_external_interrupt.c"
  2063 ;; Parameters:    Size  Location     Type
  2064 ;;  src             1    wreg     unsigned char 
  2065 ;; Auto vars:     Size  Location     Type
  2066 ;;  src             1   11[COMRAM] unsigned char 
  2067 ;; Return value:  Size  Location     Type
  2068 ;;                  1    wreg      void 
  2069 ;; Registers used:
  2070 ;;		wreg, fsr2l, fsr2h, status,2, status,0, pcl, pclath, pclatu, tosl, prodl, prodh, cstack
  2071 ;; Tracked objects:
  2072 ;;		On entry : 0/0
  2073 ;;		On exit  : 0/0
  2074 ;;		Unchanged: 0/0
  2075 ;; Data sizes:     COMRAM   BANK0   BANK1   BANK2   BANK3   BANK4   BANK5   BANK6   BANK7   BANK8   BANK9  BANK10  BANK1
      +1  BANK12  BANK13  BANK14  BANK15
  2076 ;;      Params:         0       0       0       0       0       0       0       0       0       0       0       0       
      +0       0       0       0       0
  2077 ;;      Locals:         1       0       0       0       0       0       0       0       0       0       0       0       
      +0       0       0       0       0
  2078 ;;      Temps:          0       0       0       0       0       0       0       0       0       0       0       0       
      +0       0       0       0       0
  2079 ;;      Totals:         1       0       0       0       0       0       0       0       0       0       0       0       
      +0       0       0       0       0
  2080 ;;Total ram usage:        1 bytes
  2081 ;; Hardware stack levels used: 1
  2082 ;; Hardware stack levels required when called: 3
  2083 ;; This function calls:
  2084 ;;		NULL
  2085 ;;		_sssss
  2086 ;; This function is called by:
  2087 ;;		_InterruptManager
  2088 ;; This function uses a non-reentrant model
  2089 ;;
  2090                           
  2091                           	psect	text10
  2092   001866                     __ptext10:
  2093                           	callstack 0
  2094   001866                     _RB4_ISR:
  2095                           	callstack 23
  2096                           
  2097                           ;incstack = 0
  2098                           ;RB4_ISR@src stored from wreg
  2099   001866  6E35               	movwf	RB4_ISR@src^0,c
  2100   001868                     
  2101                           ;C:/Users/Om562/MPLABXProjects/PIC18/MCAL_Layer/Interrupt/mcal_external_interrupt.c: 59:
      +                               (INTCONbits.RBIF = 0);
  2102   001868  90F2               	bcf	242,0,c	;volatile
  2103   00186A                     
  2104                           ;C:/Users/Om562/MPLABXProjects/PIC18/MCAL_Layer/Interrupt/mcal_external_interrupt.c: 60:
      +                               if (src == 0)
  2105   00186A  5035               	movf	RB4_ISR@src^0,w,c
  2106   00186C  A4D8               	btfss	status,2,c
  2107   00186E  EF3B  F00C         	goto	i2u219_41
  2108   001872  EF3D  F00C         	goto	i2u219_40
  2109   001876                     i2u219_41:
  2110   001876  EF52  F00C         	goto	i2l2994
  2111   00187A                     i2u219_40:
  2112   00187A                     
  2113                           ;C:/Users/Om562/MPLABXProjects/PIC18/MCAL_Layer/Interrupt/mcal_external_interrupt.c: 61:
      +                                   if (RB4_CallBack_LOW)
  2114   00187A  5055               	movf	_RB4_CallBack_LOW^0,w,c
  2115   00187C  1056               	iorwf	(_RB4_CallBack_LOW+1)^0,w,c
  2116   00187E  B4D8               	btfsc	status,2,c
  2117   001880  EF44  F00C         	goto	i2u220_41
  2118   001884  EF46  F00C         	goto	i2u220_40
  2119   001888                     i2u220_41:
  2120   001888  EF52  F00C         	goto	i2l2994
  2121   00188C                     i2u220_40:
  2122   00188C                     
  2123                           ;C:/Users/Om562/MPLABXProjects/PIC18/MCAL_Layer/Interrupt/mcal_external_interrupt.c: 62:
      +                                       RB4_CallBack_LOW();
  2124   00188C  D802               	call	i2u221_48
  2125   00188E  EF52  F00C         	goto	i2u221_49
  2126   001892                     i2u221_48:
  2127   001892  0005               	push	
  2128   001894  6EFA               	movwf	pclath,c
  2129   001896  5055               	movf	_RB4_CallBack_LOW^0,w,c
  2130   001898  6EFD               	movwf	tosl,c
  2131   00189A  5056               	movf	(_RB4_CallBack_LOW+1)^0,w,c
  2132   00189C  6EFE               	movwf	tosh,c
  2133   00189E  6AFF               	clrf	tosu,c
  2134   0018A0  50FA               	movf	pclath,w,c
  2135   0018A2  0012               	return		;indir
  2136   0018A4                     i2u221_49:
  2137   0018A4                     i2l2994:
  2138                           
  2139                           ;C:/Users/Om562/MPLABXProjects/PIC18/MCAL_Layer/Interrupt/mcal_external_interrupt.c: 63:
      +                               if (src == 1)
  2140   0018A4  0435               	decf	RB4_ISR@src^0,w,c
  2141   0018A6  A4D8               	btfss	status,2,c
  2142   0018A8  EF58  F00C         	goto	i2u222_41
  2143   0018AC  EF5A  F00C         	goto	i2u222_40
  2144   0018B0                     i2u222_41:
  2145   0018B0  EF6F  F00C         	goto	i2l492
  2146   0018B4                     i2u222_40:
  2147   0018B4                     
  2148                           ;C:/Users/Om562/MPLABXProjects/PIC18/MCAL_Layer/Interrupt/mcal_external_interrupt.c: 64:
      +                                   if (RB4_CallBack_HIGH)
  2149   0018B4  505D               	movf	_RB4_CallBack_HIGH^0,w,c
  2150   0018B6  105E               	iorwf	(_RB4_CallBack_HIGH+1)^0,w,c
  2151   0018B8  B4D8               	btfsc	status,2,c
  2152   0018BA  EF61  F00C         	goto	i2u223_41
  2153   0018BE  EF63  F00C         	goto	i2u223_40
  2154   0018C2                     i2u223_41:
  2155   0018C2  EF6F  F00C         	goto	i2l492
  2156   0018C6                     i2u223_40:
  2157   0018C6                     
  2158                           ;C:/Users/Om562/MPLABXProjects/PIC18/MCAL_Layer/Interrupt/mcal_external_interrupt.c: 65:
      +                                       RB4_CallBack_HIGH();
  2159   0018C6  D802               	call	i2u224_48
  2160   0018C8  EF6F  F00C         	goto	i2u224_49
  2161   0018CC                     i2u224_48:
  2162   0018CC  0005               	push	
  2163   0018CE  6EFA               	movwf	pclath,c
  2164   0018D0  505D               	movf	_RB4_CallBack_HIGH^0,w,c
  2165   0018D2  6EFD               	movwf	tosl,c
  2166   0018D4  505E               	movf	(_RB4_CallBack_HIGH+1)^0,w,c
  2167   0018D6  6EFE               	movwf	tosh,c
  2168   0018D8  6AFF               	clrf	tosu,c
  2169   0018DA  50FA               	movf	pclath,w,c
  2170   0018DC  0012               	return		;indir
  2171   0018DE                     i2u224_49:
  2172   0018DE                     i2l492:
  2173   0018DE  0012               	return		;funcret
  2174   0018E0                     __end_of_RB4_ISR:
  2175                           	callstack 0
  2176                           
  2177 ;; *************** function _sssss *****************
  2178 ;; Defined at:
  2179 ;;		line 18 in file "Application.c"
  2180 ;; Parameters:    Size  Location     Type
  2181 ;;		None
  2182 ;; Auto vars:     Size  Location     Type
  2183 ;;		None
  2184 ;; Return value:  Size  Location     Type
  2185 ;;                  1    wreg      void 
  2186 ;; Registers used:
  2187 ;;		wreg, fsr2l, fsr2h, status,2, status,0, prodl, prodh, cstack
  2188 ;; Tracked objects:
  2189 ;;		On entry : 0/0
  2190 ;;		On exit  : 0/0
  2191 ;;		Unchanged: 0/0
  2192 ;; Data sizes:     COMRAM   BANK0   BANK1   BANK2   BANK3   BANK4   BANK5   BANK6   BANK7   BANK8   BANK9  BANK10  BANK1
      +1  BANK12  BANK13  BANK14  BANK15
  2193 ;;      Params:         0       0       0       0       0       0       0       0       0       0       0       0       
      +0       0       0       0       0
  2194 ;;      Locals:         0       0       0       0       0       0       0       0       0       0       0       0       
      +0       0       0       0       0
  2195 ;;      Temps:          0       0       0       0       0       0       0       0       0       0       0       0       
      +0       0       0       0       0
  2196 ;;      Totals:         0       0       0       0       0       0       0       0       0       0       0       0       
      +0       0       0       0       0
  2197 ;;Total ram usage:        0 bytes
  2198 ;; Hardware stack levels used: 1
  2199 ;; Hardware stack levels required when called: 2
  2200 ;; This function calls:
  2201 ;;		_led_on
  2202 ;; This function is called by:
  2203 ;;		_RB4_ISR
  2204 ;;		_RB5_ISR
  2205 ;;		_RB6_ISR
  2206 ;;		_RB7_ISR
  2207 ;; This function uses a non-reentrant model
  2208 ;;
  2209                           
  2210                           	psect	text11
  2211   001A76                     __ptext11:
  2212                           	callstack 0
  2213   001A76                     _sssss:
  2214                           	callstack 23
  2215   001A76                     
  2216                           ;Application.c: 19:     led_on(&led4);
  2217   001A76  0E29               	movlw	low _led4
  2218   001A78  6E32               	movwf	led_on@led^0,c
  2219   001A7A  ECA9  F00C         	call	_led_on	;wreg free
  2220   001A7E  0012               	return		;funcret
  2221   001A80                     __end_of_sssss:
  2222                           	callstack 0
  2223                           
  2224 ;; *************** function _led_on *****************
  2225 ;; Defined at:
  2226 ;;		line 26 in file "ECU_Layer/LED/ecu_led.c"
  2227 ;; Parameters:    Size  Location     Type
  2228 ;;  led             1    8[COMRAM] PTR const struct .
  2229 ;;		 -> led4(1), 
  2230 ;; Auto vars:     Size  Location     Type
  2231 ;;  pin_obj         1   10[COMRAM] struct .
  2232 ;;  ret             1    0        unsigned char 
  2233 ;; Return value:  Size  Location     Type
  2234 ;;                  1    wreg      unsigned char 
  2235 ;; Registers used:
  2236 ;;		wreg, fsr2l, fsr2h, status,2, status,0, prodl, prodh, cstack
  2237 ;; Tracked objects:
  2238 ;;		On entry : 0/0
  2239 ;;		On exit  : 0/0
  2240 ;;		Unchanged: 0/0
  2241 ;; Data sizes:     COMRAM   BANK0   BANK1   BANK2   BANK3   BANK4   BANK5   BANK6   BANK7   BANK8   BANK9  BANK10  BANK1
      +1  BANK12  BANK13  BANK14  BANK15
  2242 ;;      Params:         1       0       0       0       0       0       0       0       0       0       0       0       
      +0       0       0       0       0
  2243 ;;      Locals:         1       0       0       0       0       0       0       0       0       0       0       0       
      +0       0       0       0       0
  2244 ;;      Temps:          1       0       0       0       0       0       0       0       0       0       0       0       
      +0       0       0       0       0
  2245 ;;      Totals:         3       0       0       0       0       0       0       0       0       0       0       0       
      +0       0       0       0       0
  2246 ;;Total ram usage:        3 bytes
  2247 ;; Hardware stack levels used: 1
  2248 ;; Hardware stack levels required when called: 1
  2249 ;; This function calls:
  2250 ;;		i2_gpio_pin_write_logic
  2251 ;; This function is called by:
  2252 ;;		_sssss
  2253 ;; This function uses a non-reentrant model
  2254 ;;
  2255                           
  2256                           	psect	text12
  2257   001952                     __ptext12:
  2258                           	callstack 0
  2259   001952                     _led_on:
  2260                           	callstack 23
  2261   001952                     
  2262                           ;ECU_Layer/LED/ecu_led.c: 30:     if(((void*)0) == led){
  2263   001952  5032               	movf	led_on@led^0,w,c
  2264   001954  A4D8               	btfss	status,2,c
  2265   001956  EFAF  F00C         	goto	i2u197_41
  2266   00195A  EFB1  F00C         	goto	i2u197_40
  2267   00195E                     i2u197_41:
  2268   00195E  EFB3  F00C         	goto	i2l287
  2269   001962                     i2u197_40:
  2270   001962                     
  2271                           ;ECU_Layer/LED/ecu_led.c: 33:     }else{
  2272   001962  EFDF  F00C         	goto	i2l291
  2273   001966                     i2l287:
  2274                           
  2275                           ;ECU_Layer/LED/ecu_led.c: 34:         pin_config_t pin_obj={.port=led->port_name,
  2276   001966  C06A  F034         	movff	led_on@F3058,led_on@pin_obj
  2277   00196A  5032               	movf	led_on@led^0,w,c
  2278   00196C  6ED9               	movwf	fsr2l,c
  2279   00196E  6ADA               	clrf	fsr2h,c
  2280   001970  50DF               	movf	223,w,c
  2281   001972  0B07               	andlw	7
  2282   001974  6E33               	movwf	??_led_on^0,c
  2283   001976  5034               	movf	led_on@pin_obj^0,w,c
  2284   001978  1833               	xorwf	??_led_on^0,w,c
  2285   00197A  0BF8               	andlw	-8
  2286   00197C  1833               	xorwf	??_led_on^0,w,c
  2287   00197E  6E34               	movwf	led_on@pin_obj^0,c
  2288   001980  5032               	movf	led_on@led^0,w,c
  2289   001982  6ED9               	movwf	fsr2l,c
  2290   001984  6ADA               	clrf	fsr2h,c
  2291   001986  30DF               	rrcf	223,w,c
  2292   001988  32E8               	rrcf	wreg,f,c
  2293   00198A  32E8               	rrcf	wreg,f,c
  2294   00198C  0B07               	andlw	7
  2295   00198E  6E33               	movwf	??_led_on^0,c
  2296   001990  4633               	rlncf	??_led_on^0,f,c
  2297   001992  4633               	rlncf	??_led_on^0,f,c
  2298   001994  4633               	rlncf	??_led_on^0,f,c
  2299   001996  5034               	movf	led_on@pin_obj^0,w,c
  2300   001998  1833               	xorwf	??_led_on^0,w,c
  2301   00199A  0BC7               	andlw	-57
  2302   00199C  1833               	xorwf	??_led_on^0,w,c
  2303   00199E  6E34               	movwf	led_on@pin_obj^0,c
  2304   0019A0  9C34               	bcf	led_on@pin_obj^0,6,c
  2305   0019A2  5032               	movf	led_on@led^0,w,c
  2306   0019A4  6ED9               	movwf	fsr2l,c
  2307   0019A6  6ADA               	clrf	fsr2h,c
  2308   0019A8  ACDF               	btfss	indf2,6,c
  2309   0019AA  D002               	bra	i2u198_45
  2310   0019AC  8E34               	bsf	led_on@pin_obj^0,7,c
  2311   0019AE  D001               	bra	i2u198_47
  2312   0019B0                     i2u198_45:
  2313   0019B0  9E34               	bcf	led_on@pin_obj^0,7,c
  2314   0019B2                     i2u198_47:
  2315   0019B2  0E34               	movlw	low led_on@pin_obj
  2316   0019B4  6E2A               	movwf	i2gpio_pin_write_logic@pin_config^0,c
  2317   0019B6  0E01               	movlw	1
  2318   0019B8  6E2B               	movwf	i2gpio_pin_write_logic@logic^0,c
  2319   0019BA  EC71  F00A         	call	i2_gpio_pin_write_logic	;wreg free
  2320   0019BE                     i2l291:
  2321   0019BE  0012               	return		;funcret
  2322   0019C0                     __end_of_led_on:
  2323                           	callstack 0
  2324                           
  2325 ;; *************** function i2_gpio_pin_write_logic *****************
  2326 ;; Defined at:
  2327 ;;		line 51 in file "MCAL_Layer/GPIO/hal_gpio.c"
  2328 ;; Parameters:    Size  Location     Type
  2329 ;;  pin_config      1    0[COMRAM] PTR struct .
  2330 ;;		 -> relayOFF@pinObj(1), relayON@pinObj(1), relayInit@pinObj(1), led_off@pin_obj(1), 
  2331 ;;		 -> led_on@pin_obj(1), led_init@pin_obj(1), 
  2332 ;;  logic           1    1[COMRAM] enum E2972
  2333 ;; Auto vars:     Size  Location     Type
  2334 ;;  ret             1    7[COMRAM] unsigned char 
  2335 ;; Return value:  Size  Location     Type
  2336 ;;                  1    wreg      unsigned char 
  2337 ;; Registers used:
  2338 ;;		wreg, fsr2l, fsr2h, status,2, status,0, prodl, prodh
  2339 ;; Tracked objects:
  2340 ;;		On entry : 0/0
  2341 ;;		On exit  : 0/0
  2342 ;;		Unchanged: 0/0
  2343 ;; Data sizes:     COMRAM   BANK0   BANK1   BANK2   BANK3   BANK4   BANK5   BANK6   BANK7   BANK8   BANK9  BANK10  BANK1
      +1  BANK12  BANK13  BANK14  BANK15
  2344 ;;      Params:         2       0       0       0       0       0       0       0       0       0       0       0       
      +0       0       0       0       0
  2345 ;;      Locals:         1       0       0       0       0       0       0       0       0       0       0       0       
      +0       0       0       0       0
  2346 ;;      Temps:          5       0       0       0       0       0       0       0       0       0       0       0       
      +0       0       0       0       0
  2347 ;;      Totals:         8       0       0       0       0       0       0       0       0       0       0       0       
      +0       0       0       0       0
  2348 ;;Total ram usage:        8 bytes
  2349 ;; Hardware stack levels used: 1
  2350 ;; This function calls:
  2351 ;;		Nothing
  2352 ;; This function is called by:
  2353 ;;		_led_on
  2354 ;; This function uses a non-reentrant model
  2355 ;;
  2356                           
  2357                           	psect	text13
  2358   0014E2                     __ptext13:
  2359                           	callstack 0
  2360   0014E2                     i2_gpio_pin_write_logic:
  2361                           	callstack 23
  2362   0014E2                     
  2363                           ;MCAL_Layer/GPIO/hal_gpio.c: 51: STD_ReturnType gpio_pin_write_logic(pin_config_t *pin_c
      +                          onfig,logic_t logic);MCAL_Layer/GPIO/hal_gpio.c: 52: {;MCAL_Layer/GPIO/hal_gpio.c: 53:  
      +                             STD_ReturnType ret = (STD_ReturnType) 0x01;
  2364   0014E2  0E01               	movlw	1
  2365   0014E4  6E31               	movwf	i2gpio_pin_write_logic@ret^0,c
  2366                           
  2367                           ;MCAL_Layer/GPIO/hal_gpio.c: 54:     if(((void*)0) == pin_config){
  2368   0014E6  502A               	movf	i2gpio_pin_write_logic@pin_config^0,w,c
  2369   0014E8  A4D8               	btfss	status,2,c
  2370   0014EA  EF79  F00A         	goto	i2u182_41
  2371   0014EE  EF7B  F00A         	goto	i2u182_40
  2372   0014F2                     i2u182_41:
  2373   0014F2  EFE2  F00A         	goto	i2l2720
  2374   0014F6                     i2u182_40:
  2375   0014F6                     i2l2706:
  2376                           
  2377                           ;MCAL_Layer/GPIO/hal_gpio.c: 55:         ret = (STD_ReturnType) 0x00;
  2378   0014F6  0E00               	movlw	0
  2379   0014F8  6E31               	movwf	i2gpio_pin_write_logic@ret^0,c
  2380                           
  2381                           ;MCAL_Layer/GPIO/hal_gpio.c: 56:     }
  2382   0014FA  EFF7  F00A         	goto	i2l2722
  2383   0014FE                     i2l2708:
  2384                           
  2385                           ;MCAL_Layer/GPIO/hal_gpio.c: 60:               (*(lat_regs[pin_config->port]) &= ~(0x01 
      +                          << pin_config->pin));
  2386   0014FE  502A               	movf	i2gpio_pin_write_logic@pin_config^0,w,c
  2387   001500  6ED9               	movwf	fsr2l,c
  2388   001502  6ADA               	clrf	fsr2h,c
  2389   001504  30DF               	rrcf	223,w,c
  2390   001506  32E8               	rrcf	wreg,f,c
  2391   001508  32E8               	rrcf	wreg,f,c
  2392   00150A  0B07               	andlw	7
  2393   00150C  6E2C               	movwf	??i2_gpio_pin_write_logic^0,c
  2394   00150E  0E01               	movlw	1
  2395   001510  6E2D               	movwf	(??i2_gpio_pin_write_logic+1)^0,c
  2396   001512  2A2C               	incf	??i2_gpio_pin_write_logic^0,f,c
  2397   001514  EF8E  F00A         	goto	i2u183_44
  2398   001518                     i2u183_45:
  2399   001518  90D8               	bcf	status,0,c
  2400   00151A  362D               	rlcf	(??i2_gpio_pin_write_logic+1)^0,f,c
  2401   00151C                     i2u183_44:
  2402   00151C  2E2C               	decfsz	??i2_gpio_pin_write_logic^0,f,c
  2403   00151E  EF8C  F00A         	goto	i2u183_45
  2404   001522  502D               	movf	(??i2_gpio_pin_write_logic+1)^0,w,c
  2405   001524  0AFF               	xorlw	255
  2406   001526  6E2E               	movwf	(??i2_gpio_pin_write_logic+2)^0,c
  2407   001528  502A               	movf	i2gpio_pin_write_logic@pin_config^0,w,c
  2408   00152A  6ED9               	movwf	fsr2l,c
  2409   00152C  6ADA               	clrf	fsr2h,c
  2410   00152E  50DF               	movf	223,w,c
  2411   001530  0B07               	andlw	7
  2412   001532  0D02               	mullw	2
  2413   001534  50F3               	movf	243,w,c
  2414   001536  0F0B               	addlw	low _lat_regs
  2415   001538  6ED9               	movwf	fsr2l,c
  2416   00153A  6ADA               	clrf	fsr2h,c
  2417   00153C  CFDE F02F          	movff	postinc2,??i2_gpio_pin_write_logic+3
  2418   001540  CFDD F030          	movff	postdec2,??i2_gpio_pin_write_logic+4
  2419   001544  C02F  FFD9         	movff	??i2_gpio_pin_write_logic+3,fsr2l
  2420   001548  C030  FFDA         	movff	??i2_gpio_pin_write_logic+4,fsr2h
  2421   00154C  502E               	movf	(??i2_gpio_pin_write_logic+2)^0,w,c
  2422   00154E  16DF               	andwf	indf2,f,c
  2423   001550                     
  2424                           ;MCAL_Layer/GPIO/hal_gpio.c: 61:               pin_config->logic = logic;
  2425   001550  502A               	movf	i2gpio_pin_write_logic@pin_config^0,w,c
  2426   001552  6ED9               	movwf	fsr2l,c
  2427   001554  6ADA               	clrf	fsr2h,c
  2428   001556  B02B               	btfsc	i2gpio_pin_write_logic@logic^0,0,c
  2429   001558  D002               	bra	i2u184_45
  2430   00155A  9EDF               	bcf	indf2,7,c
  2431   00155C  D001               	bra	i2u184_46
  2432   00155E                     i2u184_45:
  2433   00155E  8EDF               	bsf	indf2,7,c
  2434   001560                     i2u184_46:
  2435                           
  2436                           ;MCAL_Layer/GPIO/hal_gpio.c: 62:               break;
  2437   001560  EFF7  F00A         	goto	i2l2722
  2438   001564                     i2l2712:
  2439                           
  2440                           ;MCAL_Layer/GPIO/hal_gpio.c: 65:               (*(lat_regs[pin_config->port]) |= (0x01 <
      +                          < pin_config->pin));
  2441   001564  502A               	movf	i2gpio_pin_write_logic@pin_config^0,w,c
  2442   001566  6ED9               	movwf	fsr2l,c
  2443   001568  6ADA               	clrf	fsr2h,c
  2444   00156A  30DF               	rrcf	223,w,c
  2445   00156C  32E8               	rrcf	wreg,f,c
  2446   00156E  32E8               	rrcf	wreg,f,c
  2447   001570  0B07               	andlw	7
  2448   001572  6E2C               	movwf	??i2_gpio_pin_write_logic^0,c
  2449   001574  0E01               	movlw	1
  2450   001576  6E2D               	movwf	(??i2_gpio_pin_write_logic+1)^0,c
  2451   001578  2A2C               	incf	??i2_gpio_pin_write_logic^0,f,c
  2452   00157A  EFC1  F00A         	goto	i2u185_44
  2453   00157E                     i2u185_45:
  2454   00157E  90D8               	bcf	status,0,c
  2455   001580  362D               	rlcf	(??i2_gpio_pin_write_logic+1)^0,f,c
  2456   001582                     i2u185_44:
  2457   001582  2E2C               	decfsz	??i2_gpio_pin_write_logic^0,f,c
  2458   001584  EFBF  F00A         	goto	i2u185_45
  2459   001588  502A               	movf	i2gpio_pin_write_logic@pin_config^0,w,c
  2460   00158A  6ED9               	movwf	fsr2l,c
  2461   00158C  6ADA               	clrf	fsr2h,c
  2462   00158E  50DF               	movf	223,w,c
  2463   001590  0B07               	andlw	7
  2464   001592  0D02               	mullw	2
  2465   001594  50F3               	movf	243,w,c
  2466   001596  0F0B               	addlw	low _lat_regs
  2467   001598  6ED9               	movwf	fsr2l,c
  2468   00159A  6ADA               	clrf	fsr2h,c
  2469   00159C  CFDE F02E          	movff	postinc2,??i2_gpio_pin_write_logic+2
  2470   0015A0  CFDD F02F          	movff	postdec2,??i2_gpio_pin_write_logic+3
  2471   0015A4  C02E  FFD9         	movff	??i2_gpio_pin_write_logic+2,fsr2l
  2472   0015A8  C02F  FFDA         	movff	??i2_gpio_pin_write_logic+3,fsr2h
  2473   0015AC  502D               	movf	(??i2_gpio_pin_write_logic+1)^0,w,c
  2474   0015AE  12DF               	iorwf	indf2,f,c
  2475   0015B0                     
  2476                           ;MCAL_Layer/GPIO/hal_gpio.c: 66:               pin_config->logic = logic;
  2477   0015B0  502A               	movf	i2gpio_pin_write_logic@pin_config^0,w,c
  2478   0015B2  6ED9               	movwf	fsr2l,c
  2479   0015B4  6ADA               	clrf	fsr2h,c
  2480   0015B6  B02B               	btfsc	i2gpio_pin_write_logic@logic^0,0,c
  2481   0015B8  D002               	bra	i2u186_45
  2482   0015BA  9EDF               	bcf	indf2,7,c
  2483   0015BC  D001               	bra	i2u186_46
  2484   0015BE                     i2u186_45:
  2485   0015BE  8EDF               	bsf	indf2,7,c
  2486   0015C0                     i2u186_46:
  2487                           
  2488                           ;MCAL_Layer/GPIO/hal_gpio.c: 67:               break;
  2489   0015C0  EFF7  F00A         	goto	i2l2722
  2490   0015C4                     i2l2720:
  2491   0015C4  502B               	movf	i2gpio_pin_write_logic@logic^0,w,c
  2492   0015C6  6E2C               	movwf	??i2_gpio_pin_write_logic^0,c
  2493   0015C8  6A2D               	clrf	(??i2_gpio_pin_write_logic+1)^0,c
  2494                           
  2495                           ; Switch on 2 bytes has been partitioned into a top level switch of size 1, and 1 sub-sw
      +                          itches
  2496                           ; Switch size 1, requested type "simple"
  2497                           ; Number of cases is 1, Range of values is 0 to 0
  2498                           ; switch strategies available:
  2499                           ; Name         Instructions Cycles
  2500                           ; simple_byte            4     3 (average)
  2501                           ;	Chosen strategy is simple_byte
  2502   0015CA  502D               	movf	(??i2_gpio_pin_write_logic+1)^0,w,c
  2503   0015CC  0A00               	xorlw	0	; case 0
  2504   0015CE  B4D8               	btfsc	status,2,c
  2505   0015D0  EFEC  F00A         	goto	i2l3702
  2506   0015D4  EF7B  F00A         	goto	i2l2706
  2507   0015D8                     i2l3702:
  2508                           
  2509                           ; Switch size 1, requested type "simple"
  2510                           ; Number of cases is 2, Range of values is 0 to 1
  2511                           ; switch strategies available:
  2512                           ; Name         Instructions Cycles
  2513                           ; simple_byte            7     4 (average)
  2514                           ;	Chosen strategy is simple_byte
  2515   0015D8  502C               	movf	??i2_gpio_pin_write_logic^0,w,c
  2516   0015DA  0A00               	xorlw	0	; case 0
  2517   0015DC  B4D8               	btfsc	status,2,c
  2518   0015DE  EF7F  F00A         	goto	i2l2708
  2519   0015E2  0A01               	xorlw	1	; case 1
  2520   0015E4  B4D8               	btfsc	status,2,c
  2521   0015E6  EFB2  F00A         	goto	i2l2712
  2522   0015EA  EF7B  F00A         	goto	i2l2706
  2523   0015EE                     i2l2722:
  2524                           
  2525                           ;MCAL_Layer/GPIO/hal_gpio.c: 74:     return ret;
  2526   0015EE  5031               	movf	i2gpio_pin_write_logic@ret^0,w,c
  2527   0015F0  0012               	return		;funcret
  2528   0015F2                     __end_ofi2_gpio_pin_write_logic:
  2529                           	callstack 0
  2530                           
  2531 ;; *************** function _INT2_ISR *****************
  2532 ;; Defined at:
  2533 ;;		line 49 in file "C:/Users/Om562/MPLABXProjects/PIC18/MCAL_Layer/Interrupt/mcal_external_interrupt.c"
  2534 ;; Parameters:    Size  Location     Type
  2535 ;;		None
  2536 ;; Auto vars:     Size  Location     Type
  2537 ;;		None
  2538 ;; Return value:  Size  Location     Type
  2539 ;;                  1    wreg      void 
  2540 ;; Registers used:
  2541 ;;		None
  2542 ;; Tracked objects:
  2543 ;;		On entry : 0/0
  2544 ;;		On exit  : 0/0
  2545 ;;		Unchanged: 0/0
  2546 ;; Data sizes:     COMRAM   BANK0   BANK1   BANK2   BANK3   BANK4   BANK5   BANK6   BANK7   BANK8   BANK9  BANK10  BANK1
      +1  BANK12  BANK13  BANK14  BANK15
  2547 ;;      Params:         0       0       0       0       0       0       0       0       0       0       0       0       
      +0       0       0       0       0
  2548 ;;      Locals:         0       0       0       0       0       0       0       0       0       0       0       0       
      +0       0       0       0       0
  2549 ;;      Temps:          0       0       0       0       0       0       0       0       0       0       0       0       
      +0       0       0       0       0
  2550 ;;      Totals:         0       0       0       0       0       0       0       0       0       0       0       0       
      +0       0       0       0       0
  2551 ;;Total ram usage:        0 bytes
  2552 ;; Hardware stack levels used: 1
  2553 ;; This function calls:
  2554 ;;		Nothing
  2555 ;; This function is called by:
  2556 ;;		_InterruptManager
  2557 ;; This function uses a non-reentrant model
  2558 ;;
  2559                           
  2560                           	psect	text14
  2561   001A80                     __ptext14:
  2562                           	callstack 0
  2563   001A80                     _INT2_ISR:
  2564                           	callstack 26
  2565   001A80                     
  2566                           ;C:/Users/Om562/MPLABXProjects/PIC18/MCAL_Layer/Interrupt/mcal_external_interrupt.c: 51:
      +                               (INTCON3bits.INT2F = 0);
  2567   001A80  92F0               	bcf	240,1,c	;volatile
  2568   001A82  0012               	return		;funcret
  2569   001A84                     __end_of_INT2_ISR:
  2570                           	callstack 0
  2571                           
  2572 ;; *************** function _INT1_ISR *****************
  2573 ;; Defined at:
  2574 ;;		line 40 in file "C:/Users/Om562/MPLABXProjects/PIC18/MCAL_Layer/Interrupt/mcal_external_interrupt.c"
  2575 ;; Parameters:    Size  Location     Type
  2576 ;;		None
  2577 ;; Auto vars:     Size  Location     Type
  2578 ;;		None
  2579 ;; Return value:  Size  Location     Type
  2580 ;;                  1    wreg      void 
  2581 ;; Registers used:
  2582 ;;		None
  2583 ;; Tracked objects:
  2584 ;;		On entry : 0/0
  2585 ;;		On exit  : 0/0
  2586 ;;		Unchanged: 0/0
  2587 ;; Data sizes:     COMRAM   BANK0   BANK1   BANK2   BANK3   BANK4   BANK5   BANK6   BANK7   BANK8   BANK9  BANK10  BANK1
      +1  BANK12  BANK13  BANK14  BANK15
  2588 ;;      Params:         0       0       0       0       0       0       0       0       0       0       0       0       
      +0       0       0       0       0
  2589 ;;      Locals:         0       0       0       0       0       0       0       0       0       0       0       0       
      +0       0       0       0       0
  2590 ;;      Temps:          0       0       0       0       0       0       0       0       0       0       0       0       
      +0       0       0       0       0
  2591 ;;      Totals:         0       0       0       0       0       0       0       0       0       0       0       0       
      +0       0       0       0       0
  2592 ;;Total ram usage:        0 bytes
  2593 ;; Hardware stack levels used: 1
  2594 ;; This function calls:
  2595 ;;		Nothing
  2596 ;; This function is called by:
  2597 ;;		_InterruptManager
  2598 ;; This function uses a non-reentrant model
  2599 ;;
  2600                           
  2601                           	psect	text15
  2602   001A84                     __ptext15:
  2603                           	callstack 0
  2604   001A84                     _INT1_ISR:
  2605                           	callstack 26
  2606   001A84                     
  2607                           ;C:/Users/Om562/MPLABXProjects/PIC18/MCAL_Layer/Interrupt/mcal_external_interrupt.c: 42:
      +                               (INTCON3bits.INT1F = 0);
  2608   001A84  90F0               	bcf	240,0,c	;volatile
  2609   001A86  0012               	return		;funcret
  2610   001A88                     __end_of_INT1_ISR:
  2611                           	callstack 0
  2612                           
  2613 ;; *************** function _INT0_ISR *****************
  2614 ;; Defined at:
  2615 ;;		line 32 in file "C:/Users/Om562/MPLABXProjects/PIC18/MCAL_Layer/Interrupt/mcal_external_interrupt.c"
  2616 ;; Parameters:    Size  Location     Type
  2617 ;;		None
  2618 ;; Auto vars:     Size  Location     Type
  2619 ;;		None
  2620 ;; Return value:  Size  Location     Type
  2621 ;;                  1    wreg      void 
  2622 ;; Registers used:
  2623 ;;		None
  2624 ;; Tracked objects:
  2625 ;;		On entry : 0/0
  2626 ;;		On exit  : 0/0
  2627 ;;		Unchanged: 0/0
  2628 ;; Data sizes:     COMRAM   BANK0   BANK1   BANK2   BANK3   BANK4   BANK5   BANK6   BANK7   BANK8   BANK9  BANK10  BANK1
      +1  BANK12  BANK13  BANK14  BANK15
  2629 ;;      Params:         0       0       0       0       0       0       0       0       0       0       0       0       
      +0       0       0       0       0
  2630 ;;      Locals:         0       0       0       0       0       0       0       0       0       0       0       0       
      +0       0       0       0       0
  2631 ;;      Temps:          0       0       0       0       0       0       0       0       0       0       0       0       
      +0       0       0       0       0
  2632 ;;      Totals:         0       0       0       0       0       0       0       0       0       0       0       0       
      +0       0       0       0       0
  2633 ;;Total ram usage:        0 bytes
  2634 ;; Hardware stack levels used: 1
  2635 ;; This function calls:
  2636 ;;		Nothing
  2637 ;; This function is called by:
  2638 ;;		_InterruptManager
  2639 ;; This function uses a non-reentrant model
  2640 ;;
  2641                           
  2642                           	psect	text16
  2643   001A88                     __ptext16:
  2644                           	callstack 0
  2645   001A88                     _INT0_ISR:
  2646                           	callstack 26
  2647   001A88                     
  2648                           ;C:/Users/Om562/MPLABXProjects/PIC18/MCAL_Layer/Interrupt/mcal_external_interrupt.c: 34:
      +                               (INTCONbits.INT0IF = 0);
  2649   001A88  92F2               	bcf	242,1,c	;volatile
  2650   001A8A  0012               	return		;funcret
  2651   001A8C                     __end_of_INT0_ISR:
  2652                           	callstack 0
  2653                           
  2654                           	psect	text17
  2655   000000                     __ptext17:
  2656                           	callstack 0
  2657   000000                     
  2658                           	psect	rparam
  2659   000000                     
  2660                           	psect	temp
  2661   00006C                     btemp:
  2662                           	callstack 0
  2663   00006C                     	ds	1
  2664   000000                     int$flags	set	btemp
  2665   000000                     wtemp8	set	btemp+1
  2666   000000                     ttemp5	set	btemp+1
  2667   000000                     ttemp6	set	btemp+4
  2668   000000                     ttemp7	set	btemp+8
  2669                           
  2670                           	psect	config
  2671                           
  2672                           ; Padding undefined space
  2673   300000                     	org	3145728
  2674   300000  FF                 	db	255
  2675                           
  2676                           ;Config register CONFIG1H @ 0x300001
  2677                           ;	Oscillator Selection bits
  2678                           ;	OSC = HS, HS oscillator
  2679                           ;	Fail-Safe Clock Monitor Enable bit
  2680                           ;	FCMEN = OFF, Fail-Safe Clock Monitor disabled
  2681                           ;	Internal/External Oscillator Switchover bit
  2682                           ;	IESO = OFF, Oscillator Switchover mode disabled
  2683   300001                     	org	3145729
  2684   300001  02                 	db	2
  2685                           
  2686                           ;Config register CONFIG2L @ 0x300002
  2687                           ;	Power-up Timer Enable bit
  2688                           ;	PWRT = OFF, PWRT disabled
  2689                           ;	Brown-out Reset Enable bits
  2690                           ;	BOREN = OFF, Brown-out Reset disabled in hardware and software
  2691                           ;	Brown Out Reset Voltage bits
  2692                           ;	BORV = 1, 
  2693   300002                     	org	3145730
  2694   300002  09                 	db	9
  2695                           
  2696                           ;Config register CONFIG2H @ 0x300003
  2697                           ;	Watchdog Timer Enable bit
  2698                           ;	WDT = ON, WDT enabled
  2699                           ;	Watchdog Timer Postscale Select bits
  2700                           ;	WDTPS = 32768, 1:32768
  2701   300003                     	org	3145731
  2702   300003  1F                 	db	31
  2703                           
  2704                           ; Padding undefined space
  2705   300004                     	org	3145732
  2706   300004  FF                 	db	255
  2707                           
  2708                           ;Config register CONFIG3H @ 0x300005
  2709                           ;	CCP2 MUX bit
  2710                           ;	CCP2MX = PORTC, CCP2 input/output is multiplexed with RC1
  2711                           ;	PORTB A/D Enable bit
  2712                           ;	PBADEN = OFF, PORTB<4:0> pins are configured as digital I/O on Reset
  2713                           ;	Low-Power Timer1 Oscillator Enable bit
  2714                           ;	LPT1OSC = OFF, Timer1 configured for higher power operation
  2715                           ;	MCLR Pin Enable bit
  2716                           ;	MCLRE = ON, MCLR pin enabled; RE3 input pin disabled
  2717   300005                     	org	3145733
  2718   300005  81                 	db	129
  2719                           
  2720                           ;Config register CONFIG4L @ 0x300006
  2721                           ;	Stack Full/Underflow Reset Enable bit
  2722                           ;	STVREN = ON, Stack full/underflow will cause Reset
  2723                           ;	Single-Supply ICSP Enable bit
  2724                           ;	LVP = OFF, Single-Supply ICSP disabled
  2725                           ;	Extended Instruction Set Enable bit
  2726                           ;	XINST = OFF, Instruction set extension and Indexed Addressing mode disabled (Legacy mo
      +                          de)
  2727                           ;	Background Debugger Enable bit
  2728                           ;	DEBUG = 0x1, unprogrammed default
  2729   300006                     	org	3145734
  2730   300006  81                 	db	129
  2731                           
  2732                           ; Padding undefined space
  2733   300007                     	org	3145735
  2734   300007  FF                 	db	255
  2735                           
  2736                           ;Config register CONFIG5L @ 0x300008
  2737                           ;	Code Protection bit
  2738                           ;	CP0 = OFF, Block 0 (000800-003FFFh) not code-protected
  2739                           ;	Code Protection bit
  2740                           ;	CP1 = OFF, Block 1 (004000-007FFFh) not code-protected
  2741                           ;	Code Protection bit
  2742                           ;	CP2 = OFF, Block 2 (008000-00BFFFh) not code-protected
  2743                           ;	Code Protection bit
  2744                           ;	CP3 = OFF, Block 3 (00C000-00FFFFh) not code-protected
  2745   300008                     	org	3145736
  2746   300008  0F                 	db	15
  2747                           
  2748                           ;Config register CONFIG5H @ 0x300009
  2749                           ;	Boot Block Code Protection bit
  2750                           ;	CPB = OFF, Boot block (000000-0007FFh) not code-protected
  2751                           ;	Data EEPROM Code Protection bit
  2752                           ;	CPD = OFF, Data EEPROM not code-protected
  2753   300009                     	org	3145737
  2754   300009  C0                 	db	192
  2755                           
  2756                           ;Config register CONFIG6L @ 0x30000A
  2757                           ;	Write Protection bit
  2758                           ;	WRT0 = OFF, Block 0 (000800-003FFFh) not write-protected
  2759                           ;	Write Protection bit
  2760                           ;	WRT1 = OFF, Block 1 (004000-007FFFh) not write-protected
  2761                           ;	Write Protection bit
  2762                           ;	WRT2 = OFF, Block 2 (008000-00BFFFh) not write-protected
  2763                           ;	Write Protection bit
  2764                           ;	WRT3 = OFF, Block 3 (00C000-00FFFFh) not write-protected
  2765   30000A                     	org	3145738
  2766   30000A  0F                 	db	15
  2767                           
  2768                           ;Config register CONFIG6H @ 0x30000B
  2769                           ;	Configuration Register Write Protection bit
  2770                           ;	WRTC = OFF, Configuration registers (300000-3000FFh) not write-protected
  2771                           ;	Boot Block Write Protection bit
  2772                           ;	WRTB = OFF, Boot Block (000000-0007FFh) not write-protected
  2773                           ;	Data EEPROM Write Protection bit
  2774                           ;	WRTD = OFF, Data EEPROM not write-protected
  2775   30000B                     	org	3145739
  2776   30000B  E0                 	db	224
  2777                           
  2778                           ;Config register CONFIG7L @ 0x30000C
  2779                           ;	Table Read Protection bit
  2780                           ;	EBTR0 = OFF, Block 0 (000800-003FFFh) not protected from table reads executed in other
      +                           blocks
  2781                           ;	Table Read Protection bit
  2782                           ;	EBTR1 = OFF, Block 1 (004000-007FFFh) not protected from table reads executed in other
      +                           blocks
  2783                           ;	Table Read Protection bit
  2784                           ;	EBTR2 = OFF, Block 2 (008000-00BFFFh) not protected from table reads executed in other
      +                           blocks
  2785                           ;	Table Read Protection bit
  2786                           ;	EBTR3 = OFF, Block 3 (00C000-00FFFFh) not protected from table reads executed in other
      +                           blocks
  2787   30000C                     	org	3145740
  2788   30000C  0F                 	db	15
  2789                           
  2790                           ;Config register CONFIG7H @ 0x30000D
  2791                           ;	Boot Block Table Read Protection bit
  2792                           ;	EBTRB = OFF, Boot Block (000000-0007FFh) not protected from table reads executed in ot
      +                          her blocks
  2793   30000D                     	org	3145741
  2794   30000D  40                 	db	64
  2795                           tosu	equ	0xFFF
  2796                           tosh	equ	0xFFE
  2797                           tosl	equ	0xFFD
  2798                           stkptr	equ	0xFFC
  2799                           pclatu	equ	0xFFB
  2800                           pclath	equ	0xFFA
  2801                           pcl	equ	0xFF9
  2802                           tblptru	equ	0xFF8
  2803                           tblptrh	equ	0xFF7
  2804                           tblptrl	equ	0xFF6
  2805                           tablat	equ	0xFF5
  2806                           prodh	equ	0xFF4
  2807                           prodl	equ	0xFF3
  2808                           indf0	equ	0xFEF
  2809                           postinc0	equ	0xFEE
  2810                           postdec0	equ	0xFED
  2811                           preinc0	equ	0xFEC
  2812                           plusw0	equ	0xFEB
  2813                           fsr0h	equ	0xFEA
  2814                           fsr0l	equ	0xFE9
  2815                           wreg	equ	0xFE8
  2816                           indf1	equ	0xFE7
  2817                           postinc1	equ	0xFE6
  2818                           postdec1	equ	0xFE5
  2819                           preinc1	equ	0xFE4
  2820                           plusw1	equ	0xFE3
  2821                           fsr1h	equ	0xFE2
  2822                           fsr1l	equ	0xFE1
  2823                           bsr	equ	0xFE0
  2824                           indf2	equ	0xFDF
  2825                           postinc2	equ	0xFDE
  2826                           postdec2	equ	0xFDD
  2827                           preinc2	equ	0xFDC
  2828                           plusw2	equ	0xFDB
  2829                           fsr2h	equ	0xFDA
  2830                           fsr2l	equ	0xFD9
  2831                           status	equ	0xFD8

Data Sizes:
    Strings     3
    Constant    0
    Data        41
    BSS         29
    Persistent  0
    Stack       0

Auto Spaces:
    Space          Size  Autos    Used
    COMRAM          126     37     107
    BANK0           128      0       0
    BANK1           256      0       0
    BANK2           256      0       0
    BANK3           256      0       0
    BANK4           256      0       0
    BANK5           256      0       0
    BANK6           256      0       0
    BANK7           256      0       0
    BANK8           256      0       0
    BANK9           256      0       0
    BANK10          256      0       0
    BANK11          256      0       0
    BANK12          256      0       0
    BANK13          256      0       0
    BANK14          256      0       0
    BANK15          128      0       0

Pointer List with Targets:

    f$.$buffer	PTR unsigned char  size(2) Largest target is 0

    f$.$source	PTR const unsigned char  size(2) Largest target is 0

    gpio_pin_direction_initialize@pin_config	PTR const struct . size(1) Largest target is 6
		 -> led_init@pin_obj(COMRAM[1]), RB4_app(COMRAM[6]), RB4_app$pin(COMRAM[1]), relayInit@pinObj(COMRAM[1]), 

    gpio_pin_initialize@pin_config	PTR const struct . size(1) Largest target is 1
		 -> led_init@pin_obj(COMRAM[1]), relayInit@pinObj(COMRAM[1]), 

    gpio_pin_write_logic@pin_config	PTR struct . size(1) Largest target is 1
		 -> led_init@pin_obj(COMRAM[1]), led_off@pin_obj(COMRAM[1]), led_on@pin_obj(COMRAM[1]), relayInit@pinObj(COMRAM[1]), 
		 -> relayOFF@pinObj(COMRAM[1]), relayON@pinObj(COMRAM[1]), 

    INT0_CALBACK	PTR FTN()void  size(2) Largest target is 1
		 -> NULL(), 

    INT1_CALBACK	PTR FTN()void  size(2) Largest target is 1
		 -> NULL(), 

    INT2_CALBACK	PTR FTN()void  size(2) Largest target is 1
		 -> NULL(), 

    interrupt_INTx_CallBack_Init@obj$callback_function	PTR FTN()void  size(2) Largest target is 0

    interrupt_INTx_Clear_Flag@obj$callback_function	PTR FTN()void  size(2) Largest target is 0

    interrupt_INTx_Disable@obj$callback_function	PTR FTN()void  size(2) Largest target is 0

    interrupt_INTx_Edge_Init@obj$callback_function	PTR FTN()void  size(2) Largest target is 0

    interrupt_INTx_Enable@obj$callback_function	PTR FTN()void  size(2) Largest target is 0

    interrupt_INTx_Pin_Init@obj$callback_function	PTR FTN()void  size(2) Largest target is 0

    Interrupt_RBx_Init@obj	PTR struct . size(1) Largest target is 6
		 -> RB4_app(COMRAM[6]), 

    Interrupt_RBx_Init@obj$callback_function_HIGH	PTR FTN()void  size(2) Largest target is 1
		 -> sssss(), 

    Interrupt_RBx_Init@obj$callback_function_LOW	PTR FTN()void  size(2) Largest target is 1
		 -> sssss(), 

    keypadInit@pad$keypadMatrix	PTR unsigned char [6][4] size(2) Largest target is 0

    keypadReadValue@pad$keypadMatrix	PTR unsigned char [6][4] size(2) Largest target is 0

    lat_regs	PTR volatile unsigned char [5] size(2) Largest target is 1
		 -> LATA(BITBIGSFRll[1]), LATB(BITBIGSFRlh[1]), LATC(BITBIGSFRlh[1]), LATD(BITBIGSFRlh[1]), 
		 -> LATE(BITBIGSFRlh[1]), 

    led_init@led	PTR const struct . size(1) Largest target is 1
		 -> led4(COMRAM[1]), 

    led_on@led	PTR const struct . size(1) Largest target is 1
		 -> led4(COMRAM[1]), 

    port_regs	PTR volatile unsigned char [5] size(2) Largest target is 1
		 -> PORTA(BITBIGSFRll[1]), PORTB(BITBIGSFRll[1]), PORTC(BITBIGSFRll[1]), PORTD(BITBIGSFRll[1]), 
		 -> PORTE(BITBIGSFRll[1]), 

    RB4_app$callback_function_HIGH	PTR FTN()void  size(2) Largest target is 1
		 -> sssss(), 

    RB4_app$callback_function_LOW	PTR FTN()void  size(2) Largest target is 1
		 -> sssss(), 

    RB4_CallBack_HIGH	PTR FTN()void  size(2) Largest target is 1
		 -> sssss(), NULL(), 

    RB4_CallBack_LOW	PTR FTN()void  size(2) Largest target is 1
		 -> sssss(), NULL(), 

    RB5_CallBack_HIGH	PTR FTN()void  size(2) Largest target is 1
		 -> sssss(), NULL(), 

    RB5_CallBack_LOW	PTR FTN()void  size(2) Largest target is 1
		 -> sssss(), NULL(), 

    RB6_CallBack_HIGH	PTR FTN()void  size(2) Largest target is 1
		 -> sssss(), NULL(), 

    RB6_CallBack_LOW	PTR FTN()void  size(2) Largest target is 1
		 -> sssss(), NULL(), 

    RB7_CallBack_HIGH	PTR FTN()void  size(2) Largest target is 1
		 -> sssss(), NULL(), 

    RB7_CallBack_LOW	PTR FTN()void  size(2) Largest target is 1
		 -> sssss(), NULL(), 

    S151$keypadMatrix	PTR unsigned char [6][4] size(2) Largest target is 0

    S1809$buffer	PTR unsigned char  size(2) Largest target is 0

    S1809$source	PTR const unsigned char  size(2) Largest target is 0

    S888$callback_function	PTR FTN()void  size(2) Largest target is 0

    S926$callback_function_HIGH	PTR FTN()void  size(2) Largest target is 1
		 -> sssss(), 

    S926$callback_function_LOW	PTR FTN()void  size(2) Largest target is 1
		 -> sssss(), 

    sp__memset	PTR void  size(2) Largest target is 0

    tris_regs	PTR volatile unsigned char [5] size(2) Largest target is 1
		 -> TRISA(BITBIGSFRll[1]), TRISB(BITBIGSFRhll[1]), TRISC(BITBIGSFRhll[1]), TRISD(BITBIGSFRhll[1]), 
		 -> TRISE(BITBIGSFRhll[1]), 

    vfprintf$0	PTR struct _IO_FILE size(1) Largest target is 12
		 -> sprintf@f(COMRAM[12]), 

    vfprintf$1	PTR const unsigned char  size(1) Largest target is 3
		 -> STR_1(CODE[3]), STR_2(CODE[3]), STR_3(CODE[3]), 

    vfprintf$2	PTR PTR void  size(1) Largest target is 1
		 -> sprintf@ap(COMRAM[1]), 


Critical Paths under _main in COMRAM

    _main->_led_init
    _led_init->_gpio_pin_initialize
    _gpio_pin_initialize->_gpio_pin_write_logic
    _Interrupt_RBx_Init->_gpio_pin_direction_initialize

Critical Paths under _InterruptManager in COMRAM

    _InterruptManager->_RB4_ISR
    _InterruptManager->_RB5_ISR
    _InterruptManager->_RB6_ISR
    _InterruptManager->_RB7_ISR
    _sssss->_led_on
    _led_on->i2_gpio_pin_write_logic

Critical Paths under _main in BANK0

    None.

Critical Paths under _InterruptManager in BANK0

    None.

Critical Paths under _main in BANK1

    None.

Critical Paths under _InterruptManager in BANK1

    None.

Critical Paths under _main in BANK2

    None.

Critical Paths under _InterruptManager in BANK2

    None.

Critical Paths under _main in BANK3

    None.

Critical Paths under _InterruptManager in BANK3

    None.

Critical Paths under _main in BANK4

    None.

Critical Paths under _InterruptManager in BANK4

    None.

Critical Paths under _main in BANK5

    None.

Critical Paths under _InterruptManager in BANK5

    None.

Critical Paths under _main in BANK6

    None.

Critical Paths under _InterruptManager in BANK6

    None.

Critical Paths under _main in BANK7

    None.

Critical Paths under _InterruptManager in BANK7

    None.

Critical Paths under _main in BANK8

    None.

Critical Paths under _InterruptManager in BANK8

    None.

Critical Paths under _main in BANK9

    None.

Critical Paths under _InterruptManager in BANK9

    None.

Critical Paths under _main in BANK10

    None.

Critical Paths under _InterruptManager in BANK10

    None.

Critical Paths under _main in BANK11

    None.

Critical Paths under _InterruptManager in BANK11

    None.

Critical Paths under _main in BANK12

    None.

Critical Paths under _InterruptManager in BANK12

    None.

Critical Paths under _main in BANK13

    None.

Critical Paths under _InterruptManager in BANK13

    None.

Critical Paths under _main in BANK14

    None.

Critical Paths under _InterruptManager in BANK14

    None.

Critical Paths under _main in BANK15

    None.

Critical Paths under _InterruptManager in BANK15

    None.

Call Graph Tables:

 ---------------------------------------------------------------------------------
 (Depth) Function   	        Calls       Base Space   Used Autos Params    Refs
 ---------------------------------------------------------------------------------
 (0) _main                                                 6     1      5    6977
                                             32 COMRAM     5     0      5
                 _Interrupt_RBx_Init
                           _led_init
 ---------------------------------------------------------------------------------
 (1) _led_init                                             4     3      1    6244
                                             28 COMRAM     4     3      1
                _gpio_pin_initialize
 ---------------------------------------------------------------------------------
 (2) _gpio_pin_initialize                                  2     1      1    6010
                                             26 COMRAM     2     1      1
      _gpio_pin_direction_initialize
               _gpio_pin_write_logic
 ---------------------------------------------------------------------------------
 (3) _gpio_pin_write_logic                                 8     6      2    4449
                                             18 COMRAM     8     6      2
 ---------------------------------------------------------------------------------
 (1) _Interrupt_RBx_Init                                   4     3      1     730
                                             25 COMRAM     4     3      1
      _gpio_pin_direction_initialize
 ---------------------------------------------------------------------------------
 (3) _gpio_pin_direction_initialize                        7     6      1     385
                                             18 COMRAM     7     6      1
 ---------------------------------------------------------------------------------
 Estimated maximum stack depth 3
 ---------------------------------------------------------------------------------
 (Depth) Function   	        Calls       Base Space   Used Autos Params    Refs
 ---------------------------------------------------------------------------------
 (4) _InterruptManager                                     6     6      0    2212
                                             12 COMRAM     6     6      0
                           _INT0_ISR
                           _INT1_ISR
                           _INT2_ISR
                            _RB4_ISR
                            _RB5_ISR
                            _RB6_ISR
                            _RB7_ISR
 ---------------------------------------------------------------------------------
 (5) _RB7_ISR                                              1     1      0     553
                                             11 COMRAM     1     1      0
                                NULL *
                              _sssss *
 ---------------------------------------------------------------------------------
 (5) _RB6_ISR                                              1     1      0     553
                                             11 COMRAM     1     1      0
                                NULL *
                              _sssss *
 ---------------------------------------------------------------------------------
 (5) _RB5_ISR                                              1     1      0     553
                                             11 COMRAM     1     1      0
                                NULL *
                              _sssss *
 ---------------------------------------------------------------------------------
 (5) _RB4_ISR                                              1     1      0     553
                                             11 COMRAM     1     1      0
                                NULL *
                              _sssss *
 ---------------------------------------------------------------------------------
 (6) _sssss                                                0     0      0     509
                             _led_on
 ---------------------------------------------------------------------------------
 (7) _led_on                                               4     3      1     509
                                              8 COMRAM     3     2      1
             i2_gpio_pin_write_logic
 ---------------------------------------------------------------------------------
 (8) i2_gpio_pin_write_logic                               8     6      2     297
                                              0 COMRAM     8     6      2
 ---------------------------------------------------------------------------------
 (6) NULL(Fake)                                            0     0      0       0
 ---------------------------------------------------------------------------------
 (5) _INT2_ISR                                             0     0      0       0
 ---------------------------------------------------------------------------------
 (5) _INT1_ISR                                             0     0      0       0
 ---------------------------------------------------------------------------------
 (5) _INT0_ISR                                             0     0      0       0
 ---------------------------------------------------------------------------------
 Estimated maximum stack depth 8
 ---------------------------------------------------------------------------------

 Call Graph Graphs:

 _main (ROOT)
   _Interrupt_RBx_Init
     _gpio_pin_direction_initialize
   _led_init
     _gpio_pin_initialize
       _gpio_pin_direction_initialize
       _gpio_pin_write_logic

 _InterruptManager (ROOT)
   _INT0_ISR
   _INT1_ISR
   _INT2_ISR
   _RB4_ISR
     NULL(Fake) *
     _sssss *
       _led_on
         i2_gpio_pin_write_logic
   _RB5_ISR
     NULL(Fake) *
     _sssss *
   _RB6_ISR
     NULL(Fake) *
     _sssss *
   _RB7_ISR
     NULL(Fake) *
     _sssss *

 Address spaces:
Name               Size   Autos  Total    Cost      Usage
BIGRAM             F7F      0       0      41        0.0%
EEDATA             400      0       0       0        0.0%
BITBANK14          100      0       0      33        0.0%
BANK14             100      0       0      34        0.0%
BITBANK13          100      0       0      31        0.0%
BANK13             100      0       0      32        0.0%
BITBANK12          100      0       0      29        0.0%
BANK12             100      0       0      30        0.0%
BITBANK11          100      0       0      27        0.0%
BANK11             100      0       0      28        0.0%
BITBANK10          100      0       0      24        0.0%
BANK10             100      0       0      25        0.0%
BITBANK9           100      0       0      22        0.0%
BANK9              100      0       0      23        0.0%
BITBANK8           100      0       0      20        0.0%
BANK8              100      0       0      21        0.0%
BITBANK7           100      0       0      18        0.0%
BANK7              100      0       0      19        0.0%
BITBANK6           100      0       0      16        0.0%
BANK6              100      0       0      17        0.0%
BITBANK5           100      0       0      14        0.0%
BANK5              100      0       0      15        0.0%
BITBANK4           100      0       0      12        0.0%
BANK4              100      0       0      13        0.0%
BITBANK3           100      0       0      10        0.0%
BANK3              100      0       0      11        0.0%
BITBANK2           100      0       0       8        0.0%
BANK2              100      0       0       9        0.0%
BITBANK1           100      0       0       6        0.0%
BANK1              100      0       0       7        0.0%
BITBANK15           80      0       0      35        0.0%
BANK15              80      0       0      36        0.0%
BITBANK0            80      0       0       4        0.0%
BANK0               80      0       0       5        0.0%
BITCOMRAM           7E      0       0       0        0.0%
COMRAM              7E     25      6B       1       84.9%
BITBIGSFRhll        59      0       0      38        0.0%
BITBIGSFRhh          D      0       0      37        0.0%
BITBIGSFRlh          4      0       0      39        0.0%
BITBIGSFRll          4      0       0      40        0.0%
BIGSFR               0      0       0     200        0.0%
BITSFR               0      0       0     200        0.0%
SFR                  0      0       0     200        0.0%
STACK                0      0       0       2        0.0%
NULL                 0      0       0       0        0.0%
ABS                  0      0      6B      26        0.0%
DATA                 0      0      6B       3        0.0%
CODE                 0      0       0       0        0.0%


Microchip Technology PIC18 Macro Assembler V2.45 build 20230818022343 
Symbol Table                                                                                   Fri Jan 12 21:22:41 2024

                     ??_InterruptManager 0036                     ??_Interrupt_RBx_Init 0044  
                                    l405 19FC                                      l280 18F8  
                                    l530 13C8                                      l284 1950  
                                    l526 12D4                                      l535 13D0  
                                    l527 13CE                                      l376 16F6  
                                    l393 14E0                                      l678 1A6E  
                                    l679 1A6E            gpio_pin_initialize@pin_config 0044  
                                    tosl 0FFD                                      wreg 0FE8  
                            led_on@F3058 006A                          __end_of_RB4_ISR 18E0  
                        __end_of_RB5_ISR 1866                          __end_of_RB6_ISR 17EC  
                        __end_of_RB7_ISR 1772                                     l3050 12F8  
                                   l3042 12BC                                     l3060 1356  
                                   l3052 130E                                     l3044 12CC  
                                   l3062 1364                                     l3054 131C  
                                   l3046 12DC                                     l3064 137A  
                                   l3056 1332                                     l3048 12EA  
                                   l3058 1340                                     l3066 137E  
                                   l3068 13CA                                     l2730 13D2  
                                   l3700 16DE                                     l2740 14A0  
                                   l2732 13E6                                     l2734 13EE  
                                   l2760 160E                                     l2736 1440  
                                   l2762 1664                                     l2770 16F4  
                                   l2738 1454                                     l2746 14B4  
                                   l2756 15F2                                     l2748 14DE  
                                   l2758 1606                                     l2768 16B4  
                                   l2792 19C0                                     l2794 19D4  
                                   l2970 18E0                                     l3674 1A5E  
                                   l2796 19DC                                     l2980 1944  
                                   l2972 18F0                                     l3676 1A5E  
                                   l2798 19FA                                     l2974 18FC  
                                   l2982 194E                                     l3678 1A66  
                                   l3696 14C8                                     l2976 1932  
                                   l3698 13A2                                     l2978 1934  
                                   STR_1 1001                                     _LATA 0F89  
                                   _LATB 0F8A                                     _LATC 0F8B  
                                   _LATD 0F8C                                     _LATE 0F8D  
                                   u2170 18F0                                     u2171 18EC  
                                   u2430 12CC                                     u2431 12C8  
                                   u2185 1942                                     u2187 1944  
                                   u1920 1606                                     u1904 1472  
                                   u1921 1602                                     u1905 146E  
                                   u1915 14AE                                     u1916 14B0  
                                   u1950 16CA                                     u1934 162C  
                                   u1870 13E6                                     u1951 16C4  
                                   u1935 1628                                     u1871 13E2  
                                   u1960 16CC                                     u1944 1682  
                                   u1945 167E                                     u1884 140C  
                                   u1885 1408                                     u1990 19D4  
                                   u1895 144E                                     u1991 19D0  
                                   u1896 1450                                     _led4 0029  
                                   _main 1A5E                                     fsr2h 0FDA  
                                   indf2 0FDF                                     fsr1l 0FE1  
                                   fsr2l 0FD9                                     btemp 006C  
                                   prodh 0FF4                                     prodl 0FF3  
                                   start 000E                              led_init@led 0046  
                            led_init@ret 0048                             ___param_bank 0000  
                   _gpio_pin_write_logic 13D2                         __end_of_INT0_ISR 1A8C  
                       __end_of_INT1_ISR 1A88                         __end_of_INT2_ISR 1A84  
                                  ?_main 004A                             led_off@F3063 0069  
                                  i2l513 1770                                    i2l506 17EA  
                                  i2l291 19BE                                    i2l287 1966  
                                  i2l481 1A86                                    i2l393 15F0  
                                  i2l492 18DE                                    i2l660 12A0  
                                  i2l477 1A8A                                    i2l485 1A82  
                                  i2l671 1A7E                                    i2l499 1864  
                                  _PORTA 0F80                                    _PORTB 0F81  
                                  _PORTC 0F82                                    _PORTD 0F83  
                                  _PORTE 0F84                                    _TRISA 0F92  
                                  _TRISB 0F93                                    _TRISC 0F94  
                                  _TRISD 0F95                                    _TRISE 0F96  
                                  _sssss 1A76                                    pclath 0FFA  
                                  pclatu 0FFB                                    tablat 0FF5  
                                  ttemp5 006D                                    ttemp6 0070  
                                  ttemp7 0074                                    status 0FD8  
                                  wtemp8 006D           ?_gpio_pin_direction_initialize 003C  
                        __initialization 19FE                             __end_of_main 1A76  
              i2gpio_pin_write_logic@ret 0031                    ?_gpio_pin_write_logic 003C  
            i2gpio_pin_write_logic@logic 002B                                   ??_main 004F  
                          __activetblptr 0003                                ??_RB4_ISR 0035  
                              ??_RB5_ISR 0035                                ??_RB6_ISR 0035  
                              ??_RB7_ISR 0035                        _RB6_CallBack_HIGH 0059  
                                 ?_sssss 002A                                   i2l3000 17EE  
                                 i2l3010 183A                                   i2l3002 17F0  
                                 i2l3012 184C                                   i2l3004 1800  
                                 i2l3020 1798                                   i2l3006 1812  
                                 i2l3022 17B0                                   i2l3014 1774  
                                 i2l3030 16FC                                   i2l3008 182A  
                                 i2l3024 17C0                                   i2l3016 1776  
                                 i2l3040 1758                                   i2l3032 170C  
                                 i2l3026 17D2                                   i2l3018 1786  
                                 i2l3034 171E                                   i2l3036 1736  
                                 i2l3028 16FA                                   i2l3038 1746  
                                 i2l1660 1A84                                   i2l2710 1550  
                                 i2l1656 1A88                                   i2l1664 1A80  
                                 i2l2712 1564                                   i2l2720 15C4  
                                 i2l2704 14E2                                   i2l3600 1102  
                                 i2l2714 15B0                                   i2l2722 15EE  
                                 i2l2706 14F6                                   i2l3610 1142  
                                 i2l3602 1108                                   i2l2708 14FE  
                                 i2l3620 1176                                   i2l3612 1146  
                                 i2l3604 1116                                   i2l3702 15D8  
                                 i2l2902 1A76                                   i2l3630 11AC  
                                 i2l3622 1186                                   i2l3606 1124  
                                 i2l3614 114C                                   i2l3640 11E2  
                                 i2l3632 11BA                                   i2l3624 118A  
                                 i2l3616 115A                                   i2l3608 1132  
                                 i2l3560 1020                                   i2l3642 11F0  
                                 i2l3650 1218                                   i2l3634 11CA  
                                 i2l3618 1168                                   i2l3626 1190  
                                 i2l3570 105C                                   i2l3562 102E  
                                 i2l2780 1962                                   i2l3660 1256  
                                 i2l3652 1226                                   i2l3644 11FE  
                                 i2l3636 11CE                                   i2l3628 119E  
                                 i2l3580 108E                                   i2l3572 1060  
                                 i2l3564 103C                                   i2l2782 196A  
                                 i2l3670 1296                                   i2l3654 1234  
                                 i2l3662 125C                                   i2l3646 120E  
                                 i2l3638 11D4                                   i2l3582 109C  
                                 i2l3590 10C4                                   i2l3574 106E  
                                 i2l3566 1040                                   i2l2784 19A0  
                                 i2l3672 129A                                   i2l3664 126A  
                                 i2l3656 1242                                   i2l3648 1212  
                                 i2l3592 10D2                                   i2l3584 10AA  
                                 i2l3576 107C                                   i2l3568 104E  
                                 i2l2786 19A2                                   i2l2778 1952  
                                 i2l3666 1278                                   i2l3658 1252  
                                 i2l3594 10E0                                   i2l3586 10BA  
                                 i2l3578 1080                                   i2l2788 19B2  
                                 i2l3668 1286                                   i2l3596 10EE  
                                 i2l3588 10BE                                   i2l2990 187A  
                                 i2l3598 10FE                                   i2l2992 188C  
                                 i2l2994 18A4                                   i2l2986 1868  
                                 i2l2996 18B4                                   i2l2988 186A  
                                 i2l2998 18C6                         __end_of_led_init 1952  
                                 _led_on 1952                                   clear_0 1A24  
                                 isa$std 0001                            relayOFF@F3056 0065  
                          led_init@F3053 006B                             __pdataCOMRAM 0001  
                          led_on@pin_obj 0034                             __mediumconst 0000  
                                 tblptrh 0FF7                                   tblptrl 0FF6  
                                 tblptru 0FF8                               __accesstop 0080  
                __end_of__initialization 1A2A                                ?_INT0_ISR 002A  
                              ?_INT1_ISR 002A                                ?_INT2_ISR 002A  
                          ___rparam_used 0001                   ??_gpio_pin_write_logic 003E  
                         __pcstackCOMRAM 002A                            __end_of_sssss 1A80  
                                ??_sssss 0035                         _RB4_CallBack_LOW 0055  
                             ??_INT0_ISR 002A                               ??_INT1_ISR 002A  
                             ??_INT2_ISR 002A                                  ?_led_on 0032  
                        led_toggle@F3068 0068                                  _RB4_ISR 1866  
                                _RB5_ISR 17EC                                  _RB6_ISR 1772  
                                _RB7_ISR 16F8                                  _RB4_app 0023  
                              ?_led_init 0046                                  __Hparam 0000  
                                __Lparam 0000                      _gpio_pin_initialize 19C0  
                           __psmallconst 1000                                  __pcinit 19FE  
                                __ramtop 1000                                  __ptext0 1A5E  
                                __ptext1 18E0                                  __ptext2 19C0  
                                __ptext3 13D2                                  __ptext4 12BC  
                                __ptext5 15F2                                  __ptext7 16F8  
                                __ptext8 1772                                  __ptext9 17EC  
        ??_gpio_pin_direction_initialize 003D                     ?_gpio_pin_initialize 0044  
               ??i2_gpio_pin_write_logic 002C                        _RB7_CallBack_HIGH 0057  
                         __pintcode_body 1006                               ??_led_init 0047  
                   end_of_initialization 1A2A                         _RB5_CallBack_LOW 0053  
                                int_func 1006                                  postdec1 0FE5  
                                postdec2 0FDD                                  postinc0 0FEE  
                                postinc2 0FDE                             _INT0_CALBACK 0063  
                              _PORTBbits 0F81                             _INT1_CALBACK 0061  
                       _InterruptManager 0008                             _INT2_CALBACK 005F  
                  ??_gpio_pin_initialize 0045                               RB4_ISR@src 0035  
                             RB5_ISR@src 0035                               RB6_ISR@src 0035  
                             RB7_ISR@src 0035                            __pidataCOMRAM 1A34  
                         __end_of_led_on 19C0                    Interrupt_RBx_Init@obj 0043  
                  Interrupt_RBx_Init@ret 0046                      start_initialization 19FE  
  __end_of_gpio_pin_direction_initialize 16F8            _gpio_pin_direction_initialize 15F2  
                       _RB6_CallBack_LOW 0051                                 ??_led_on 0033  
                           relayON@F3051 0066                                 ?_RB4_ISR 002A  
                               ?_RB5_ISR 002A                                 ?_RB6_ISR 002A  
                               ?_RB7_ISR 002A                        _RB4_CallBack_HIGH 005D  
                            __pbssCOMRAM 004F           gpio_pin_write_logic@pin_config 003C  
       i2gpio_pin_write_logic@pin_config 002A                                __pintcode 0008  
             __end_of_Interrupt_RBx_Init 13D2                   i2_gpio_pin_write_logic 14E2  
              gpio_pin_write_logic@logic 003D                              __smallconst 1000  
                         relayInit@F3046 0067                                 _INT0_ISR 1A88  
                               _INT1_ISR 1A84                                 _INT2_ISR 1A80  
                               _RB4_Flag 0022                         _RB7_CallBack_LOW 004F  
                               _RB5_Flag 0021                                 _RB6_Flag 0020  
                               _RB7_Flag 001F                 __end_of_InterruptManager 12BC  
                               i2u220_40 188C                                 i2u300_40 10EE  
                               i2u220_41 1888                                 i2u300_41 10EA  
                               i2u301_40 10FE                                 i2u301_41 10FA  
                               i2u222_40 18B4                                 i2u221_48 1892  
                               i2u310_40 119E                                 i2u302_40 1116  
                               i2u222_41 18B0                                 i2u221_49 18A4  
                               i2u310_41 119A                                 i2u302_41 1112  
                               i2u223_40 18C6                                 i2u230_48 1852  
                               i2u231_40 1786                                 i2u311_40 11AC  
                               i2u303_40 1124                                 i2u223_41 18C2  
                               i2u230_49 1864                                 i2u231_41 1782  
                               i2u311_41 11A8                                 i2u303_41 1120  
                               i2u232_40 1798                                 i2u240_40 1746  
                               i2u320_40 1242                                 i2u312_40 11BA  
                               i2u304_40 1132                                 i2u232_41 1794  
                               i2u240_41 1742                                 i2u320_41 123E  
                               i2u312_41 11B6                                 i2u304_41 112E  
                               i2u224_48 18CC                                 i2u225_40 1800  
                               i2u241_40 1758                                 i2u321_40 1252  
                               i2u313_40 11CA                                 i2u305_40 1142  
                               i2u224_49 18DE                                 i2u225_41 17FC  
                               i2u241_41 1754                                 i2u321_41 124E  
                               i2u313_41 11C6                                 i2u305_41 113E  
                               i2u226_40 1812                                 i2u234_40 17C0  
                               i2u233_48 179E                                 i2u322_40 126A  
                               i2u314_40 11E2                                 i2u306_40 115A  
                               i2u226_41 180E                                 i2u234_41 17BC  
                               i2u233_49 17B0                                 i2u322_41 1266  
                               i2u314_41 11DE                                 i2u306_41 1156  
                               i2u219_40 187A                                 i2u235_40 17D2  
                               i2u242_48 175E                                 i2u323_40 1278  
                               i2u315_40 11F0                                 i2u307_40 1168  
                               i2u219_41 1876                                 i2u235_41 17CE  
                               i2u242_49 1770                                 i2u323_41 1274  
                               i2u315_41 11EC                                 i2u307_41 1164  
                               i2u228_40 183A                                 i2u227_48 1818  
                               i2u324_40 1286                                 i2u316_40 11FE  
                               i2u308_40 1176                                 i2u228_41 1836  
                               i2u227_49 182A                                 i2u324_41 1282  
                               i2u316_41 11FA                                 i2u308_41 1172  
                               i2u229_40 184C                                 i2u236_48 17D8  
                               i2u237_40 170C                                 i2u325_40 1296  
                               i2u317_40 120E                                 i2u309_40 1186  
                               i2u229_41 1848                                 i2u236_49 17EA  
                               i2u237_41 1708                                 i2u325_41 1292  
                               i2u317_41 120A                                 i2u309_41 1182  
                               i2u182_40 14F6                                 i2u238_40 171E  
                               i2u318_40 1226                                 i2u182_41 14F2  
                               i2u238_41 171A                                 i2u318_41 1222  
                               i2u319_40 1234                                 i2u319_41 1230  
                               i2u183_44 151C                                 i2u183_45 1518  
                               i2u239_48 1724                                 i2u239_49 1736  
                               i2u184_45 155E                                 i2u184_46 1560  
                               i2u185_44 1582                                 i2u185_45 157E  
                               i2u290_40 104E                                 i2u290_41 104A  
                               i2u186_45 15BE                                 i2u186_46 15C0  
                               i2u291_40 105C                                 i2u291_41 1058  
                               i2u292_40 106E                                 i2u292_41 106A  
                               i2u197_40 1962                                 i2u293_40 107C  
                               i2u197_41 195E                                 i2u293_41 1078  
                               i2u294_40 108E                                 i2u294_41 108A  
                               i2u198_45 19B0                                 i2u198_47 19B2  
                               i2u295_40 109C                                 i2u295_41 1098  
                               i2u296_40 10AA                                 i2u288_40 102E  
                               i2u296_41 10A6                                 i2u288_41 102A  
                               i2u297_40 10BA                                 i2u289_40 103C  
                               i2u297_41 10B6                                 i2u289_41 1038  
                               i2u298_40 10D2                                 i2u298_41 10CE  
                               i2u299_40 10E0                                 i2u299_41 10DC  
       gpio_pin_direction_initialize@ret 0042                                _port_regs 0001  
gpio_pin_direction_initialize@pin_config 003C                                _tris_regs 0015  
                 gpio_pin_initialize@ret 0045                                led_on@led 0032  
                gpio_pin_write_logic@ret 0043                              _INTCON2bits 0FF1  
                            _INTCON3bits 0FF0                                copy_data0 1A12  
                               __Hrparam 0000                                 __Lrparam 0000  
            __end_of_gpio_pin_initialize 19FE                                 __ptext10 1866  
                               __ptext11 1A76                                 __ptext12 1952  
                               __ptext13 14E2                                 __ptext14 1A80  
                               __ptext15 1A84                                 __ptext16 1A88  
                               __ptext17 0000                                 _led_init 18E0  
                               _lat_regs 000B                                 isa$xinst 0000  
                               int$flags 006C                                 main@argc 004A  
                               fp__sssss 0000                                 main@argv 004C  
                             _INTCONbits 0FF2                        _RB5_CallBack_HIGH 005B  
           __end_of_gpio_pin_write_logic 14E2                                 intlevel2 0000  
                ?i2_gpio_pin_write_logic 002A                       _Interrupt_RBx_Init 12BC  
                    ?_Interrupt_RBx_Init 0043           __end_ofi2_gpio_pin_write_logic 15F2  
                        led_init@pin_obj 0049                        ?_InterruptManager 002A  
