

Microchip MPLAB XC8 Assembler V2.45 build 20230818022343 
                                                                                               Tue Feb 06 22:17:12 2024

Microchip MPLAB XC8 C Compiler v2.45 (Free license) build 20230818022343 Og1 
     1                           	processor	18F4620
     2                           	fnconf	rparam,??,?,0
     3                           	pagewidth 120
     4                           	opt	flic
     5                           	psect	idataCOMRAM,global,class=CODE,delta=1,noexec
     6                           	psect	smallconst,global,reloc=2,class=SMALLCONST,delta=1,noexec
     7                           	psect	cinit,global,reloc=2,class=CODE,delta=1
     8                           	psect	bssCOMRAM,global,class=COMRAM,space=1,delta=1,lowdata,noexec
     9                           	psect	dataCOMRAM,global,class=COMRAM,space=1,delta=1,lowdata,noexec
    10                           	psect	cstackCOMRAM,global,class=COMRAM,space=1,delta=1,lowdata,noexec
    11                           	psect	text0,global,reloc=2,class=CODE,delta=1
    12                           	psect	text1,global,reloc=2,class=CODE,delta=1
    13                           	psect	text2,global,reloc=2,class=CODE,delta=1
    14                           	psect	text3,global,reloc=2,class=CODE,delta=1
    15                           	psect	text4,global,reloc=2,class=CODE,delta=1
    16                           	psect	text5,global,reloc=2,class=CODE,delta=1
    17                           	psect	intcode,global,reloc=2,class=CODE,delta=1
    18                           	psect	intcode_body,global,reloc=2,class=CODE,delta=1
    19                           	psect	text7,global,reloc=2,class=CODE,delta=1
    20                           	psect	text8,global,reloc=2,class=CODE,delta=1
    21                           	psect	text9,global,reloc=2,class=CODE,delta=1
    22                           	psect	text10,global,reloc=2,class=CODE,delta=1
    23                           	psect	text11,global,reloc=2,class=CODE,delta=1
    24                           	psect	text12,global,reloc=2,class=CODE,delta=1
    25                           	psect	text13,global,reloc=2,class=CODE,delta=1
    26                           	psect	text14,global,reloc=2,class=CODE,delta=1
    27                           	psect	text15,global,reloc=2,class=CODE,delta=1
    28                           	psect	text16,global,reloc=2,class=CODE,delta=1
    29                           	psect	text17,global,reloc=2,class=CODE,delta=1
    30                           	psect	text18,global,reloc=2,class=CODE,delta=1
    31                           	psect	intsave_regs,global,class=BIGRAM,space=1,delta=1,noexec
    32                           	psect	text19,global,reloc=2,class=CODE,delta=1
    33                           	psect	rparam,global,class=COMRAM,space=1,delta=1,noexec
    34                           	psect	temp,global,ovrld,common,class=COMRAM,space=1,delta=1
    35                           	psect	config,global,abs,ovrld,class=CONFIG,space=4,delta=1,noexec
    36   000000                     
    37                           ; Generated 23/03/2023 GMT
    38                           ; 
    39                           ; Copyright © 2023, Microchip Technology Inc. and its subsidiaries ("Microchip")
    40                           ; All rights reserved.
    41                           ; 
    42                           ; This software is developed by Microchip Technology Inc. and its subsidiaries ("Microch
      +                          ip").
    43                           ; 
    44                           ; Redistribution and use in source and binary forms, with or without modification, are
    45                           ; permitted provided that the following conditions are met:
    46                           ; 
    47                           ;     1. Redistributions of source code must retain the above copyright notice, this lis
      +                          t of
    48                           ;        conditions and the following disclaimer.
    49                           ; 
    50                           ;     2. Redistributions in binary form must reproduce the above copyright notice, this 
      +                          list
    51                           ;        of conditions and the following disclaimer in the documentation and/or other
    52                           ;        materials provided with the distribution. Publication is not required when
    53                           ;        this file is used in an embedded application.
    54                           ; 
    55                           ;     3. Microchip's name may not be used to endorse or promote products derived from th
      +                          is
    56                           ;        software without specific prior written permission.
    57                           ; 
    58                           ; THIS SOFTWARE IS PROVIDED BY MICROCHIP "AS IS" AND ANY EXPRESS OR IMPLIED WARRANTIES,
    59                           ; INCLUDING, BUT NOT LIMITED TO, THE IMPLIED WARRANTIES OF MERCHANTABILITY AND FITNESS F
      +                          OR
    60                           ; PURPOSE ARE DISCLAIMED.  IN NO EVENT SHALL MICROCHIP BE LIABLE FOR ANY DIRECT, INDIREC
      +                          T,
    61                           ; INCIDENTAL, SPECIAL, EXEMPLARY, OR CONSEQUENTIAL DAMAGES (INCLUDING BUT NOT LIMITED TO
    62                           ; PROCUREMENT OF SUBSTITUTE GOODS OR SERVICES; LOSS OF USE, DATA OR PROFITS; OR BUSINESS
    63                           ; INTERRUPTION) HOWSOEVER CAUSED AND ON ANY THEORY OF LIABILITY, WHETHER IN CONTRACT, ST
      +                          RICT
    64                           ; LIABILITY, OR TORT (INCLUDING NEGLIGENCE OR OTHERWISE) ARISING IN ANY WAY OUT OF THE U
      +                          SE OF
    65                           ; THIS SOFTWARE, EVEN IF ADVISED OF THE POSSIBILITY OF SUCH DAMAGE.
    66                           ; 
    67                           ; 
    68                           ; Code-generator required, PIC18F4620 Definitions
    69                           ; 
    70                           ; SFR Addresses
    71   000000                     
    72                           	psect	idataCOMRAM
    73   0016F8                     __pidataCOMRAM:
    74                           	callstack 0
    75                           
    76                           ;initializer for _port_regs
    77   0016F8  80                 	db	128
    78   0016F9  0F                 	db	15
    79   0016FA  81                 	db	129
    80   0016FB  0F                 	db	15
    81   0016FC  82                 	db	130
    82   0016FD  0F                 	db	15
    83   0016FE  83                 	db	131
    84   0016FF  0F                 	db	15
    85   001700  84                 	db	132
    86   001701  0F                 	db	15
    87                           
    88                           ;initializer for _lat_regs
    89   001702  89                 	db	137
    90   001703  0F                 	db	15
    91   001704  8A                 	db	138
    92   001705  0F                 	db	15
    93   001706  8B                 	db	139
    94   001707  0F                 	db	15
    95   001708  8C                 	db	140
    96   001709  0F                 	db	15
    97   00170A  8D                 	db	141
    98   00170B  0F                 	db	15
    99                           
   100                           ;initializer for _tris_regs
   101   00170C  92                 	db	146
   102   00170D  0F                 	db	15
   103   00170E  93                 	db	147
   104   00170F  0F                 	db	15
   105   001710  94                 	db	148
   106   001711  0F                 	db	15
   107   001712  95                 	db	149
   108   001713  0F                 	db	15
   109   001714  96                 	db	150
   110   001715  0F                 	db	15
   111                           
   112                           ;initializer for _RB7_Flag
   113   001716  01                 	db	1
   114                           
   115                           ;initializer for _RB6_Flag
   116   001717  01                 	db	1
   117                           
   118                           ;initializer for _RB5_Flag
   119   001718  01                 	db	1
   120                           
   121                           ;initializer for _RB4_Flag
   122   001719  01                 	db	1
   123                           
   124                           ;initializer for _led1
   125   00171A  0B                 	db	11
   126   000000                     _INTCON2bits	set	4081
   127   000000                     _EECON2	set	4007
   128   000000                     _EEDATA	set	4008
   129   000000                     _ADCON1bits	set	4033
   130   000000                     _ADRESL	set	4035
   131   000000                     _ADRESH	set	4036
   132   000000                     _INTCONbits	set	4082
   133   000000                     _TRISD	set	3989
   134   000000                     _TRISC	set	3988
   135   000000                     _TRISB	set	3987
   136   000000                     _TRISE	set	3990
   137   000000                     _PORTBbits	set	3969
   138   000000                     _PIE1bits	set	3997
   139   000000                     _ADCON2bits	set	4032
   140   000000                     _ADCON0bits	set	4034
   141   000000                     _PORTE	set	3972
   142   000000                     _PORTD	set	3971
   143   000000                     _PORTC	set	3970
   144   000000                     _PORTB	set	3969
   145   000000                     _PORTA	set	3968
   146   000000                     _LATA	set	3977
   147   000000                     _TRISA	set	3986
   148   000000                     _EECON1bits	set	4006
   149   000000                     _EEADR	set	4009
   150   000000                     _EEADRH	set	4010
   151   000000                     _PIR1bits	set	3998
   152   000000                     _T2CONbits	set	4042
   153   000000                     _TMR2	set	4044
   154   000000                     _T1CONbits	set	4045
   155   000000                     _TMR1L	set	4046
   156   000000                     _TMR1H	set	4047
   157   000000                     _T0CONbits	set	4053
   158   000000                     _TMR0L	set	4054
   159   000000                     _TMR0H	set	4055
   160   000000                     _INTCON3bits	set	4080
   161   000000                     _LATE	set	3981
   162   000000                     _LATD	set	3980
   163   000000                     _LATC	set	3979
   164   000000                     _LATB	set	3978
   165                           
   166                           	psect	smallconst
   167   001000                     __psmallconst:
   168                           	callstack 0
   169   001000  00                 	db	0
   170   001001                     STR_1:
   171   001001  25                 	db	37
   172   001002  69                 	db	105	;'i'
   173   001003  00                 	db	0
   174   001004  00                 	db	0	; dummy byte at the end
   175   000000                     
   176                           ; #config settings
   177                           
   178                           	psect	cinit
   179   001660                     __pcinit:
   180                           	callstack 0
   181   001660                     start_initialization:
   182                           	callstack 0
   183   001660                     __initialization:
   184                           	callstack 0
   185                           
   186                           ; Initialize objects allocated to COMRAM (35 bytes)
   187                           ; load TBLPTR registers with __pidataCOMRAM
   188   001660  0EF8               	movlw	low __pidataCOMRAM
   189   001662  6EF6               	movwf	tblptrl,c
   190   001664  0E16               	movlw	high __pidataCOMRAM
   191   001666  6EF7               	movwf	tblptrh,c
   192   001668  0E00               	movlw	low (__pidataCOMRAM shr (0+16))
   193   00166A  6EF8               	movwf	tblptru,c
   194   00166C  EE00  F02B         	lfsr	0,__pdataCOMRAM
   195   001670  EE10 F023          	lfsr	1,35
   196   001674                     copy_data0:
   197   001674  0009               	tblrd		*+
   198   001676  CFF5 FFEE          	movff	tablat,postinc0
   199   00167A  50E5               	movf	postdec1,w,c
   200   00167C  50E1               	movf	fsr1l,w,c
   201   00167E  E1FA               	bnz	copy_data0
   202                           
   203                           ; Clear objects allocated to COMRAM (42 bytes)
   204   001680  EE00  F001         	lfsr	0,__pbssCOMRAM
   205   001684  0E2A               	movlw	42
   206   001686                     clear_0:
   207   001686  6AEE               	clrf	postinc0,c
   208   001688  06E8               	decf	wreg,f,c
   209   00168A  E1FD               	bnz	clear_0
   210   00168C                     end_of_initialization:
   211                           	callstack 0
   212   00168C                     __end_of__initialization:
   213                           	callstack 0
   214   00168C  9063               	bcf	int$flags,0,c	;clear compiler interrupt flag (level 1)
   215   00168E  9263               	bcf	int$flags,1,c	;clear compiler interrupt flag (level 2)
   216   001690  0100               	movlb	0
   217   001692  EF64  F00B         	goto	_main	;jump to C main() function
   218                           
   219                           	psect	bssCOMRAM
   220   000001                     __pbssCOMRAM:
   221                           	callstack 0
   222   000001                     _timer2_interrupt_handler:
   223                           	callstack 0
   224   000001                     	ds	2
   225   000003                     _TMR1InterruptHandler:
   226                           	callstack 0
   227   000003                     	ds	2
   228   000005                     _PreLoadValue:
   229                           	callstack 0
   230   000005                     	ds	2
   231   000007                     _timer0PreloadValue:
   232                           	callstack 0
   233   000007                     	ds	2
   234   000009                     _timerInterrupthandler:
   235                           	callstack 0
   236   000009                     	ds	2
   237   00000B                     _RB7_CallBack_LOW:
   238                           	callstack 0
   239   00000B                     	ds	2
   240   00000D                     _RB6_CallBack_LOW:
   241                           	callstack 0
   242   00000D                     	ds	2
   243   00000F                     _RB5_CallBack_LOW:
   244                           	callstack 0
   245   00000F                     	ds	2
   246   000011                     _RB4_CallBack_LOW:
   247                           	callstack 0
   248   000011                     	ds	2
   249   000013                     _RB7_CallBack_HIGH:
   250                           	callstack 0
   251   000013                     	ds	2
   252   000015                     _RB6_CallBack_HIGH:
   253                           	callstack 0
   254   000015                     	ds	2
   255   000017                     _RB5_CallBack_HIGH:
   256                           	callstack 0
   257   000017                     	ds	2
   258   000019                     _RB4_CallBack_HIGH:
   259                           	callstack 0
   260   000019                     	ds	2
   261   00001B                     _INT2_CALBACK:
   262                           	callstack 0
   263   00001B                     	ds	2
   264   00001D                     _INT1_CALBACK:
   265                           	callstack 0
   266   00001D                     	ds	2
   267   00001F                     _INT0_CALBACK:
   268                           	callstack 0
   269   00001F                     	ds	2
   270   000021                     _ADC_CALLBACK:
   271                           	callstack 0
   272   000021                     	ds	2
   273   000023                     _preVal:
   274                           	callstack 0
   275   000023                     	ds	1
   276   000024                     relayOFF@F3056:
   277                           	callstack 0
   278   000024                     	ds	1
   279   000025                     relayON@F3051:
   280                           	callstack 0
   281   000025                     	ds	1
   282   000026                     relayInit@F3046:
   283                           	callstack 0
   284   000026                     	ds	1
   285   000027                     led_toggle@F3068:
   286                           	callstack 0
   287   000027                     	ds	1
   288   000028                     led_off@F3063:
   289                           	callstack 0
   290   000028                     	ds	1
   291   000029                     led_on@F3058:
   292                           	callstack 0
   293   000029                     	ds	1
   294   00002A                     led_init@F3053:
   295                           	callstack 0
   296   00002A                     	ds	1
   297                           
   298                           	psect	dataCOMRAM
   299   00002B                     __pdataCOMRAM:
   300                           	callstack 0
   301   00002B                     _port_regs:
   302                           	callstack 0
   303   00002B                     	ds	10
   304   000035                     _lat_regs:
   305                           	callstack 0
   306   000035                     	ds	10
   307   00003F                     _tris_regs:
   308                           	callstack 0
   309   00003F                     	ds	10
   310   000049                     _RB7_Flag:
   311                           	callstack 0
   312   000049                     	ds	1
   313   00004A                     _RB6_Flag:
   314                           	callstack 0
   315   00004A                     	ds	1
   316   00004B                     _RB5_Flag:
   317                           	callstack 0
   318   00004B                     	ds	1
   319   00004C                     _RB4_Flag:
   320                           	callstack 0
   321   00004C                     	ds	1
   322   00004D                     _led1:
   323                           	callstack 0
   324   00004D                     	ds	1
   325                           
   326                           	psect	cstackCOMRAM
   327   00004E                     __pcstackCOMRAM:
   328                           	callstack 0
   329   00004E                     RB4_ISR@src:
   330                           	callstack 0
   331   00004E                     RB5_ISR@src:
   332                           	callstack 0
   333   00004E                     RB6_ISR@src:
   334                           	callstack 0
   335   00004E                     RB7_ISR@src:
   336                           	callstack 0
   337                           
   338                           ; 1 bytes @ 0x0
   339   00004E                     	ds	1
   340   00004F                     ??_InterruptManager:
   341                           
   342                           ; 1 bytes @ 0x1
   343   00004F                     	ds	2
   344   000051                     gpio_pin_direction_initialize@pin_config:
   345                           	callstack 0
   346   000051                     gpio_pin_write_logic@pin_config:
   347                           	callstack 0
   348   000051                     Timer2_Init@obj:
   349                           	callstack 0
   350                           
   351                           ; 1 bytes @ 0x3
   352   000051                     	ds	1
   353   000052                     ??_gpio_pin_direction_initialize:
   354   000052                     ??_Timer2_Init:
   355   000052                     gpio_pin_write_logic@logic:
   356                           	callstack 0
   357                           
   358                           ; 1 bytes @ 0x4
   359   000052                     	ds	1
   360   000053                     ??_gpio_pin_write_logic:
   361                           
   362                           ; 1 bytes @ 0x5
   363   000053                     	ds	4
   364   000057                     gpio_pin_direction_initialize@ret:
   365                           	callstack 0
   366                           
   367                           ; 1 bytes @ 0x9
   368   000057                     	ds	1
   369   000058                     gpio_pin_write_logic@ret:
   370                           	callstack 0
   371                           
   372                           ; 1 bytes @ 0xA
   373   000058                     	ds	1
   374   000059                     gpio_pin_initialize@pin_config:
   375                           	callstack 0
   376                           
   377                           ; 1 bytes @ 0xB
   378   000059                     	ds	1
   379   00005A                     gpio_pin_initialize@ret:
   380                           	callstack 0
   381                           
   382                           ; 1 bytes @ 0xC
   383   00005A                     	ds	1
   384   00005B                     led_init@led:
   385                           	callstack 0
   386                           
   387                           ; 1 bytes @ 0xD
   388   00005B                     	ds	1
   389   00005C                     ??_led_init:
   390                           
   391                           ; 1 bytes @ 0xE
   392   00005C                     	ds	1
   393   00005D                     led_init@pin_obj:
   394                           	callstack 0
   395                           
   396                           ; 1 bytes @ 0xF
   397   00005D                     	ds	1
   398   00005E                     main@timer2_obj:
   399                           	callstack 0
   400                           
   401                           ; 5 bytes @ 0x10
   402   00005E                     	ds	5
   403                           
   404 ;;
   405 ;;Main: autosize = 0, tempsize = 0, incstack = 0, save=0
   406 ;;
   407 ;; *************** function _main *****************
   408 ;; Defined at:
   409 ;;		line 27 in file "Application.c"
   410 ;; Parameters:    Size  Location     Type
   411 ;;		None
   412 ;; Auto vars:     Size  Location     Type
   413 ;;  timer2_obj      5   16[COMRAM] struct .
   414 ;; Return value:  Size  Location     Type
   415 ;;                  2  978[None  ] int 
   416 ;; Registers used:
   417 ;;		wreg, fsr2l, fsr2h, status,2, status,0, prodl, prodh, cstack
   418 ;; Tracked objects:
   419 ;;		On entry : 0/0
   420 ;;		On exit  : 0/0
   421 ;;		Unchanged: 0/0
   422 ;; Data sizes:     COMRAM   BANK0   BANK1   BANK2   BANK3   BANK4   BANK5   BANK6   BANK7   BANK8   BANK9  BANK10  BANK1
      +1  BANK12  BANK13  BANK14  BANK15
   423 ;;      Params:         0       0       0       0       0       0       0       0       0       0       0       0       
      +0       0       0       0       0
   424 ;;      Locals:         5       0       0       0       0       0       0       0       0       0       0       0       
      +0       0       0       0       0
   425 ;;      Temps:          0       0       0       0       0       0       0       0       0       0       0       0       
      +0       0       0       0       0
   426 ;;      Totals:         5       0       0       0       0       0       0       0       0       0       0       0       
      +0       0       0       0       0
   427 ;;Total ram usage:        5 bytes
   428 ;; Hardware stack levels required when called: 6
   429 ;; This function calls:
   430 ;;		_Timer2_Init
   431 ;;		_led_init
   432 ;; This function is called by:
   433 ;;		Startup code after reset
   434 ;; This function uses a non-reentrant model
   435 ;;
   436                           
   437                           	psect	text0
   438   0016C8                     __ptext0:
   439                           	callstack 0
   440   0016C8                     _main:
   441                           	callstack 25
   442   0016C8                     
   443                           ;Application.c: 28:     Timer2_t timer2_obj;;Application.c: 29:     timer2_obj.tmr2CallB
      +                          ack = fun;
   444   0016C8  0E34               	movlw	low _fun
   445   0016CA  6E5E               	movwf	main@timer2_obj^0,c
   446   0016CC  0E17               	movlw	high _fun
   447   0016CE  6E5F               	movwf	(main@timer2_obj+1)^0,c
   448   0016D0                     
   449                           ;Application.c: 30:     timer2_obj.preScalerValue = 2;
   450   0016D0  5062               	movf	(main@timer2_obj+4)^0,w,c
   451   0016D2  0BCF               	andlw	-49
   452   0016D4  0920               	iorlw	32
   453   0016D6  6E62               	movwf	(main@timer2_obj+4)^0,c
   454   0016D8                     
   455                           ;Application.c: 31:     timer2_obj.postScalerValue = 15;
   456   0016D8  0E0F               	movlw	15
   457   0016DA  1262               	iorwf	(main@timer2_obj+4)^0,f,c
   458   0016DC                     
   459                           ;Application.c: 32:     timer2_obj.preLoadedValue = 0;
   460   0016DC  0E00               	movlw	0
   461   0016DE  6E61               	movwf	(main@timer2_obj+3)^0,c
   462   0016E0                     
   463                           ;Application.c: 33:     led_init(&led1);
   464   0016E0  0E4D               	movlw	low _led1
   465   0016E2  6E5B               	movwf	led_init@led^0,c
   466   0016E4  ECDC  F00A         	call	_led_init	;wreg free
   467   0016E8                     
   468                           ;Application.c: 35:     Timer2_Init(&timer2_obj);
   469   0016E8  0E5E               	movlw	low main@timer2_obj
   470   0016EA  6E51               	movwf	Timer2_Init@obj^0,c
   471   0016EC  EC99  F00A         	call	_Timer2_Init	;wreg free
   472   0016F0                     l979:
   473   0016F0  EF78  F00B         	goto	l979
   474   0016F4  EF07  F000         	goto	start
   475   0016F8                     __end_of_main:
   476                           	callstack 0
   477                           
   478 ;; *************** function _led_init *****************
   479 ;; Defined at:
   480 ;;		line 9 in file "ECU_Layer/LED/ecu_led.c"
   481 ;; Parameters:    Size  Location     Type
   482 ;;  led             1   13[COMRAM] PTR const struct .
   483 ;;		 -> led1(1), 
   484 ;; Auto vars:     Size  Location     Type
   485 ;;  pin_obj         1   15[COMRAM] struct .
   486 ;;  ret             1    0        unsigned char 
   487 ;; Return value:  Size  Location     Type
   488 ;;                  1    wreg      unsigned char 
   489 ;; Registers used:
   490 ;;		wreg, fsr2l, fsr2h, status,2, status,0, prodl, prodh, cstack
   491 ;; Tracked objects:
   492 ;;		On entry : 0/0
   493 ;;		On exit  : 0/0
   494 ;;		Unchanged: 0/0
   495 ;; Data sizes:     COMRAM   BANK0   BANK1   BANK2   BANK3   BANK4   BANK5   BANK6   BANK7   BANK8   BANK9  BANK10  BANK1
      +1  BANK12  BANK13  BANK14  BANK15
   496 ;;      Params:         1       0       0       0       0       0       0       0       0       0       0       0       
      +0       0       0       0       0
   497 ;;      Locals:         1       0       0       0       0       0       0       0       0       0       0       0       
      +0       0       0       0       0
   498 ;;      Temps:          1       0       0       0       0       0       0       0       0       0       0       0       
      +0       0       0       0       0
   499 ;;      Totals:         3       0       0       0       0       0       0       0       0       0       0       0       
      +0       0       0       0       0
   500 ;;Total ram usage:        3 bytes
   501 ;; Hardware stack levels used: 1
   502 ;; Hardware stack levels required when called: 5
   503 ;; This function calls:
   504 ;;		_gpio_pin_initialize
   505 ;; This function is called by:
   506 ;;		_main
   507 ;; This function uses a non-reentrant model
   508 ;;
   509                           
   510                           	psect	text1
   511   0015B8                     __ptext1:
   512                           	callstack 0
   513   0015B8                     _led_init:
   514                           	callstack 25
   515   0015B8                     
   516                           ;ECU_Layer/LED/ecu_led.c: 12:     if(((void*)0) == led){
   517   0015B8  505B               	movf	led_init@led^0,w,c
   518   0015BA  A4D8               	btfss	status,2,c
   519   0015BC  EFE2  F00A         	goto	u2451
   520   0015C0  EFE4  F00A         	goto	u2450
   521   0015C4                     u2451:
   522   0015C4  EFE6  F00A         	goto	l280
   523   0015C8                     u2450:
   524   0015C8                     
   525                           ;ECU_Layer/LED/ecu_led.c: 14:     }else{
   526   0015C8  EF10  F00B         	goto	l284
   527   0015CC                     l280:
   528                           
   529                           ;ECU_Layer/LED/ecu_led.c: 15:         pin_config_t pin_obj={.port=led->port_name,
   530   0015CC  C02A  F05D         	movff	led_init@F3053,led_init@pin_obj
   531   0015D0  505B               	movf	led_init@led^0,w,c
   532   0015D2  6ED9               	movwf	fsr2l,c
   533   0015D4  6ADA               	clrf	fsr2h,c
   534   0015D6  50DF               	movf	223,w,c
   535   0015D8  0B07               	andlw	7
   536   0015DA  6E5C               	movwf	??_led_init^0,c
   537   0015DC  505D               	movf	led_init@pin_obj^0,w,c
   538   0015DE  185C               	xorwf	??_led_init^0,w,c
   539   0015E0  0BF8               	andlw	-8
   540   0015E2  185C               	xorwf	??_led_init^0,w,c
   541   0015E4  6E5D               	movwf	led_init@pin_obj^0,c
   542   0015E6  505B               	movf	led_init@led^0,w,c
   543   0015E8  6ED9               	movwf	fsr2l,c
   544   0015EA  6ADA               	clrf	fsr2h,c
   545   0015EC  30DF               	rrcf	223,w,c
   546   0015EE  32E8               	rrcf	wreg,f,c
   547   0015F0  32E8               	rrcf	wreg,f,c
   548   0015F2  0B07               	andlw	7
   549   0015F4  6E5C               	movwf	??_led_init^0,c
   550   0015F6  465C               	rlncf	??_led_init^0,f,c
   551   0015F8  465C               	rlncf	??_led_init^0,f,c
   552   0015FA  465C               	rlncf	??_led_init^0,f,c
   553   0015FC  505D               	movf	led_init@pin_obj^0,w,c
   554   0015FE  185C               	xorwf	??_led_init^0,w,c
   555   001600  0BC7               	andlw	-57
   556   001602  185C               	xorwf	??_led_init^0,w,c
   557   001604  6E5D               	movwf	led_init@pin_obj^0,c
   558   001606  9C5D               	bcf	led_init@pin_obj^0,6,c
   559   001608  505B               	movf	led_init@led^0,w,c
   560   00160A  6ED9               	movwf	fsr2l,c
   561   00160C  6ADA               	clrf	fsr2h,c
   562   00160E  ACDF               	btfss	indf2,6,c
   563   001610  D002               	bra	u2465
   564   001612  8E5D               	bsf	led_init@pin_obj^0,7,c
   565   001614  D001               	bra	u2467
   566   001616                     u2465:
   567   001616  9E5D               	bcf	led_init@pin_obj^0,7,c
   568   001618                     u2467:
   569   001618  0E5D               	movlw	low led_init@pin_obj
   570   00161A  6E59               	movwf	gpio_pin_initialize@pin_config^0,c
   571   00161C  EC11  F00B         	call	_gpio_pin_initialize	;wreg free
   572   001620                     l284:
   573   001620  0012               	return		;funcret
   574   001622                     __end_of_led_init:
   575                           	callstack 0
   576                           
   577 ;; *************** function _gpio_pin_initialize *****************
   578 ;; Defined at:
   579 ;;		line 89 in file "MCAL_Layer/GPIO/hal_gpio.c"
   580 ;; Parameters:    Size  Location     Type
   581 ;;  pin_config      1   11[COMRAM] PTR const struct .
   582 ;;		 -> relayInit@pinObj(1), led_init@pin_obj(1), 
   583 ;; Auto vars:     Size  Location     Type
   584 ;;  ret             1   12[COMRAM] unsigned char 
   585 ;; Return value:  Size  Location     Type
   586 ;;                  1    wreg      unsigned char 
   587 ;; Registers used:
   588 ;;		wreg, fsr2l, fsr2h, status,2, status,0, prodl, prodh, cstack
   589 ;; Tracked objects:
   590 ;;		On entry : 0/0
   591 ;;		On exit  : 0/0
   592 ;;		Unchanged: 0/0
   593 ;; Data sizes:     COMRAM   BANK0   BANK1   BANK2   BANK3   BANK4   BANK5   BANK6   BANK7   BANK8   BANK9  BANK10  BANK1
      +1  BANK12  BANK13  BANK14  BANK15
   594 ;;      Params:         1       0       0       0       0       0       0       0       0       0       0       0       
      +0       0       0       0       0
   595 ;;      Locals:         1       0       0       0       0       0       0       0       0       0       0       0       
      +0       0       0       0       0
   596 ;;      Temps:          0       0       0       0       0       0       0       0       0       0       0       0       
      +0       0       0       0       0
   597 ;;      Totals:         2       0       0       0       0       0       0       0       0       0       0       0       
      +0       0       0       0       0
   598 ;;Total ram usage:        2 bytes
   599 ;; Hardware stack levels used: 1
   600 ;; Hardware stack levels required when called: 4
   601 ;; This function calls:
   602 ;;		_gpio_pin_direction_initialize
   603 ;;		_gpio_pin_write_logic
   604 ;; This function is called by:
   605 ;;		_led_init
   606 ;;		_segInit
   607 ;;		_dcMotor_intit
   608 ;;		_keypadInit
   609 ;;		_lcd_4bit_intialize
   610 ;;		_lcd_8bit_intialize
   611 ;;		_relayInit
   612 ;;		_interrupt_INTx_Pin_Init
   613 ;; This function uses a non-reentrant model
   614 ;;
   615                           
   616                           	psect	text2
   617   001622                     __ptext2:
   618                           	callstack 0
   619   001622                     _gpio_pin_initialize:
   620                           	callstack 25
   621   001622                     
   622                           ;MCAL_Layer/GPIO/hal_gpio.c: 89: STD_ReturnType gpio_pin_initialize(const pin_config_t *
      +                          pin_config);MCAL_Layer/GPIO/hal_gpio.c: 90: {;MCAL_Layer/GPIO/hal_gpio.c: 91:     STD_Re
      +                          turnType ret = (STD_ReturnType) 0x01;
   623   001622  0E01               	movlw	1
   624   001624  6E5A               	movwf	gpio_pin_initialize@ret^0,c
   625                           
   626                           ;MCAL_Layer/GPIO/hal_gpio.c: 92:     if(((void*)0) == pin_config){
   627   001626  5059               	movf	gpio_pin_initialize@pin_config^0,w,c
   628   001628  A4D8               	btfss	status,2,c
   629   00162A  EF19  F00B         	goto	u2271
   630   00162E  EF1B  F00B         	goto	u2270
   631   001632                     u2271:
   632   001632  EF1F  F00B         	goto	l3583
   633   001636                     u2270:
   634   001636                     
   635                           ;MCAL_Layer/GPIO/hal_gpio.c: 93:         ret = (STD_ReturnType) 0x00;
   636   001636  0E00               	movlw	0
   637   001638  6E5A               	movwf	gpio_pin_initialize@ret^0,c
   638                           
   639                           ;MCAL_Layer/GPIO/hal_gpio.c: 94:     }
   640   00163A  EF2E  F00B         	goto	l3585
   641   00163E                     l3583:
   642                           
   643                           ;MCAL_Layer/GPIO/hal_gpio.c: 96:        gpio_pin_direction_initialize(pin_config);
   644   00163E  C059  F051         	movff	gpio_pin_initialize@pin_config,gpio_pin_direction_initialize@pin_config
   645   001642  EC16  F00A         	call	_gpio_pin_direction_initialize	;wreg free
   646                           
   647                           ;MCAL_Layer/GPIO/hal_gpio.c: 97:        gpio_pin_write_logic(pin_config,pin_config->logi
      +                          c);
   648   001646  C059  F051         	movff	gpio_pin_initialize@pin_config,gpio_pin_write_logic@pin_config
   649   00164A  5059               	movf	gpio_pin_initialize@pin_config^0,w,c
   650   00164C  6ED9               	movwf	fsr2l,c
   651   00164E  6ADA               	clrf	fsr2h,c
   652   001650  0E00               	movlw	0
   653   001652  BEDF               	btfsc	indf2,7,c
   654   001654  0E01               	movlw	1
   655   001656  6E52               	movwf	gpio_pin_write_logic@logic^0,c
   656   001658  EC8E  F009         	call	_gpio_pin_write_logic	;wreg free
   657   00165C                     l3585:
   658                           
   659                           ;MCAL_Layer/GPIO/hal_gpio.c: 99:     return ret;
   660   00165C  505A               	movf	gpio_pin_initialize@ret^0,w,c
   661   00165E  0012               	return		;funcret
   662   001660                     __end_of_gpio_pin_initialize:
   663                           	callstack 0
   664                           
   665 ;; *************** function _gpio_pin_write_logic *****************
   666 ;; Defined at:
   667 ;;		line 51 in file "MCAL_Layer/GPIO/hal_gpio.c"
   668 ;; Parameters:    Size  Location     Type
   669 ;;  pin_config      1    3[COMRAM] PTR struct .
   670 ;;		 -> relayOFF@pinObj(1), relayON@pinObj(1), relayInit@pinObj(1), led_off@pin_obj(1), 
   671 ;;		 -> led_on@pin_obj(1), led_init@pin_obj(1), 
   672 ;;  logic           1    4[COMRAM] enum E2972
   673 ;; Auto vars:     Size  Location     Type
   674 ;;  ret             1   10[COMRAM] unsigned char 
   675 ;; Return value:  Size  Location     Type
   676 ;;                  1    wreg      unsigned char 
   677 ;; Registers used:
   678 ;;		wreg, fsr2l, fsr2h, status,2, status,0, prodl, prodh
   679 ;; Tracked objects:
   680 ;;		On entry : 0/0
   681 ;;		On exit  : 0/0
   682 ;;		Unchanged: 0/0
   683 ;; Data sizes:     COMRAM   BANK0   BANK1   BANK2   BANK3   BANK4   BANK5   BANK6   BANK7   BANK8   BANK9  BANK10  BANK1
      +1  BANK12  BANK13  BANK14  BANK15
   684 ;;      Params:         2       0       0       0       0       0       0       0       0       0       0       0       
      +0       0       0       0       0
   685 ;;      Locals:         1       0       0       0       0       0       0       0       0       0       0       0       
      +0       0       0       0       0
   686 ;;      Temps:          5       0       0       0       0       0       0       0       0       0       0       0       
      +0       0       0       0       0
   687 ;;      Totals:         8       0       0       0       0       0       0       0       0       0       0       0       
      +0       0       0       0       0
   688 ;;Total ram usage:        8 bytes
   689 ;; Hardware stack levels used: 1
   690 ;; Hardware stack levels required when called: 3
   691 ;; This function calls:
   692 ;;		Nothing
   693 ;; This function is called by:
   694 ;;		_gpio_pin_initialize
   695 ;;		_segWrite
   696 ;;		_dcMotor_Move_right
   697 ;;		_dcMotor_Move_left
   698 ;;		_dcMotor_Stop
   699 ;;		_keypadReadValue
   700 ;;		_lcd_4bit_send_command
   701 ;;		_lcd_4bit_send_char_data
   702 ;;		_lcd_8bit_send_command
   703 ;;		_lcd_8bit_send_char_data
   704 ;;		_lcd_4bit_send_data
   705 ;;		_lcd_4bit_blink_en
   706 ;;		_lcd_8bit_send_data
   707 ;;		_lcd_8bit_blink_en
   708 ;;		_led_on
   709 ;;		_led_off
   710 ;;		_relayON
   711 ;;		_relayOFF
   712 ;; This function uses a non-reentrant model
   713 ;;
   714                           
   715                           	psect	text3
   716   00131C                     __ptext3:
   717                           	callstack 0
   718   00131C                     _gpio_pin_write_logic:
   719                           	callstack 25
   720   00131C                     
   721                           ;MCAL_Layer/GPIO/hal_gpio.c: 51: STD_ReturnType gpio_pin_write_logic(pin_config_t *pin_c
      +                          onfig,logic_t logic);MCAL_Layer/GPIO/hal_gpio.c: 52: {;MCAL_Layer/GPIO/hal_gpio.c: 53:  
      +                             STD_ReturnType ret = (STD_ReturnType) 0x01;
   722   00131C  0E01               	movlw	1
   723   00131E  6E58               	movwf	gpio_pin_write_logic@ret^0,c
   724                           
   725                           ;MCAL_Layer/GPIO/hal_gpio.c: 54:     if(((void*)0) == pin_config){
   726   001320  5051               	movf	gpio_pin_write_logic@pin_config^0,w,c
   727   001322  A4D8               	btfss	status,2,c
   728   001324  EF96  F009         	goto	u2171
   729   001328  EF98  F009         	goto	u2170
   730   00132C                     u2171:
   731   00132C  EFFF  F009         	goto	l3547
   732   001330                     u2170:
   733   001330                     l3533:
   734                           
   735                           ;MCAL_Layer/GPIO/hal_gpio.c: 55:         ret = (STD_ReturnType) 0x00;
   736   001330  0E00               	movlw	0
   737   001332  6E58               	movwf	gpio_pin_write_logic@ret^0,c
   738                           
   739                           ;MCAL_Layer/GPIO/hal_gpio.c: 56:     }
   740   001334  EF14  F00A         	goto	l3549
   741   001338                     l3535:
   742                           
   743                           ;MCAL_Layer/GPIO/hal_gpio.c: 60:               (*(lat_regs[pin_config->port]) &= ~(0x01 
      +                          << pin_config->pin));
   744   001338  5051               	movf	gpio_pin_write_logic@pin_config^0,w,c
   745   00133A  6ED9               	movwf	fsr2l,c
   746   00133C  6ADA               	clrf	fsr2h,c
   747   00133E  30DF               	rrcf	223,w,c
   748   001340  32E8               	rrcf	wreg,f,c
   749   001342  32E8               	rrcf	wreg,f,c
   750   001344  0B07               	andlw	7
   751   001346  6E53               	movwf	??_gpio_pin_write_logic^0,c
   752   001348  0E01               	movlw	1
   753   00134A  6E54               	movwf	(??_gpio_pin_write_logic+1)^0,c
   754   00134C  2A53               	incf	??_gpio_pin_write_logic^0,f,c
   755   00134E  EFAB  F009         	goto	u2184
   756   001352                     u2185:
   757   001352  90D8               	bcf	status,0,c
   758   001354  3654               	rlcf	(??_gpio_pin_write_logic+1)^0,f,c
   759   001356                     u2184:
   760   001356  2E53               	decfsz	??_gpio_pin_write_logic^0,f,c
   761   001358  EFA9  F009         	goto	u2185
   762   00135C  5054               	movf	(??_gpio_pin_write_logic+1)^0,w,c
   763   00135E  0AFF               	xorlw	255
   764   001360  6E55               	movwf	(??_gpio_pin_write_logic+2)^0,c
   765   001362  5051               	movf	gpio_pin_write_logic@pin_config^0,w,c
   766   001364  6ED9               	movwf	fsr2l,c
   767   001366  6ADA               	clrf	fsr2h,c
   768   001368  50DF               	movf	223,w,c
   769   00136A  0B07               	andlw	7
   770   00136C  0D02               	mullw	2
   771   00136E  50F3               	movf	243,w,c
   772   001370  0F35               	addlw	low _lat_regs
   773   001372  6ED9               	movwf	fsr2l,c
   774   001374  6ADA               	clrf	fsr2h,c
   775   001376  CFDE F056          	movff	postinc2,??_gpio_pin_write_logic+3
   776   00137A  CFDD F057          	movff	postdec2,??_gpio_pin_write_logic+4
   777   00137E  C056  FFD9         	movff	??_gpio_pin_write_logic+3,fsr2l
   778   001382  C057  FFDA         	movff	??_gpio_pin_write_logic+4,fsr2h
   779   001386  5055               	movf	(??_gpio_pin_write_logic+2)^0,w,c
   780   001388  16DF               	andwf	indf2,f,c
   781   00138A                     
   782                           ;MCAL_Layer/GPIO/hal_gpio.c: 61:               pin_config->logic = logic;
   783   00138A  5051               	movf	gpio_pin_write_logic@pin_config^0,w,c
   784   00138C  6ED9               	movwf	fsr2l,c
   785   00138E  6ADA               	clrf	fsr2h,c
   786   001390  B052               	btfsc	gpio_pin_write_logic@logic^0,0,c
   787   001392  D002               	bra	u2195
   788   001394  9EDF               	bcf	indf2,7,c
   789   001396  D001               	bra	u2196
   790   001398                     u2195:
   791   001398  8EDF               	bsf	indf2,7,c
   792   00139A                     u2196:
   793                           
   794                           ;MCAL_Layer/GPIO/hal_gpio.c: 62:               break;
   795   00139A  EF14  F00A         	goto	l3549
   796   00139E                     l3539:
   797                           
   798                           ;MCAL_Layer/GPIO/hal_gpio.c: 65:               (*(lat_regs[pin_config->port]) |= (0x01 <
      +                          < pin_config->pin));
   799   00139E  5051               	movf	gpio_pin_write_logic@pin_config^0,w,c
   800   0013A0  6ED9               	movwf	fsr2l,c
   801   0013A2  6ADA               	clrf	fsr2h,c
   802   0013A4  30DF               	rrcf	223,w,c
   803   0013A6  32E8               	rrcf	wreg,f,c
   804   0013A8  32E8               	rrcf	wreg,f,c
   805   0013AA  0B07               	andlw	7
   806   0013AC  6E53               	movwf	??_gpio_pin_write_logic^0,c
   807   0013AE  0E01               	movlw	1
   808   0013B0  6E54               	movwf	(??_gpio_pin_write_logic+1)^0,c
   809   0013B2  2A53               	incf	??_gpio_pin_write_logic^0,f,c
   810   0013B4  EFDE  F009         	goto	u2204
   811   0013B8                     u2205:
   812   0013B8  90D8               	bcf	status,0,c
   813   0013BA  3654               	rlcf	(??_gpio_pin_write_logic+1)^0,f,c
   814   0013BC                     u2204:
   815   0013BC  2E53               	decfsz	??_gpio_pin_write_logic^0,f,c
   816   0013BE  EFDC  F009         	goto	u2205
   817   0013C2  5051               	movf	gpio_pin_write_logic@pin_config^0,w,c
   818   0013C4  6ED9               	movwf	fsr2l,c
   819   0013C6  6ADA               	clrf	fsr2h,c
   820   0013C8  50DF               	movf	223,w,c
   821   0013CA  0B07               	andlw	7
   822   0013CC  0D02               	mullw	2
   823   0013CE  50F3               	movf	243,w,c
   824   0013D0  0F35               	addlw	low _lat_regs
   825   0013D2  6ED9               	movwf	fsr2l,c
   826   0013D4  6ADA               	clrf	fsr2h,c
   827   0013D6  CFDE F055          	movff	postinc2,??_gpio_pin_write_logic+2
   828   0013DA  CFDD F056          	movff	postdec2,??_gpio_pin_write_logic+3
   829   0013DE  C055  FFD9         	movff	??_gpio_pin_write_logic+2,fsr2l
   830   0013E2  C056  FFDA         	movff	??_gpio_pin_write_logic+3,fsr2h
   831   0013E6  5054               	movf	(??_gpio_pin_write_logic+1)^0,w,c
   832   0013E8  12DF               	iorwf	indf2,f,c
   833   0013EA                     
   834                           ;MCAL_Layer/GPIO/hal_gpio.c: 66:               pin_config->logic = logic;
   835   0013EA  5051               	movf	gpio_pin_write_logic@pin_config^0,w,c
   836   0013EC  6ED9               	movwf	fsr2l,c
   837   0013EE  6ADA               	clrf	fsr2h,c
   838   0013F0  B052               	btfsc	gpio_pin_write_logic@logic^0,0,c
   839   0013F2  D002               	bra	u2215
   840   0013F4  9EDF               	bcf	indf2,7,c
   841   0013F6  D001               	bra	u2216
   842   0013F8                     u2215:
   843   0013F8  8EDF               	bsf	indf2,7,c
   844   0013FA                     u2216:
   845                           
   846                           ;MCAL_Layer/GPIO/hal_gpio.c: 67:               break;
   847   0013FA  EF14  F00A         	goto	l3549
   848   0013FE                     l3547:
   849   0013FE  5052               	movf	gpio_pin_write_logic@logic^0,w,c
   850   001400  6E53               	movwf	??_gpio_pin_write_logic^0,c
   851   001402  6A54               	clrf	(??_gpio_pin_write_logic+1)^0,c
   852                           
   853                           ; Switch on 2 bytes has been partitioned into a top level switch of size 1, and 1 sub-sw
      +                          itches
   854                           ; Switch size 1, requested type "simple"
   855                           ; Number of cases is 1, Range of values is 0 to 0
   856                           ; switch strategies available:
   857                           ; Name         Instructions Cycles
   858                           ; simple_byte            4     3 (average)
   859                           ;	Chosen strategy is simple_byte
   860   001404  5054               	movf	(??_gpio_pin_write_logic+1)^0,w,c
   861   001406  0A00               	xorlw	0	; case 0
   862   001408  B4D8               	btfsc	status,2,c
   863   00140A  EF09  F00A         	goto	l4345
   864   00140E  EF98  F009         	goto	l3533
   865   001412                     l4345:
   866                           
   867                           ; Switch size 1, requested type "simple"
   868                           ; Number of cases is 2, Range of values is 0 to 1
   869                           ; switch strategies available:
   870                           ; Name         Instructions Cycles
   871                           ; simple_byte            7     4 (average)
   872                           ;	Chosen strategy is simple_byte
   873   001412  5053               	movf	??_gpio_pin_write_logic^0,w,c
   874   001414  0A00               	xorlw	0	; case 0
   875   001416  B4D8               	btfsc	status,2,c
   876   001418  EF9C  F009         	goto	l3535
   877   00141C  0A01               	xorlw	1	; case 1
   878   00141E  B4D8               	btfsc	status,2,c
   879   001420  EFCF  F009         	goto	l3539
   880   001424  EF98  F009         	goto	l3533
   881   001428                     l3549:
   882                           
   883                           ;MCAL_Layer/GPIO/hal_gpio.c: 74:     return ret;
   884   001428  5058               	movf	gpio_pin_write_logic@ret^0,w,c
   885   00142A  0012               	return		;funcret
   886   00142C                     __end_of_gpio_pin_write_logic:
   887                           	callstack 0
   888                           
   889 ;; *************** function _gpio_pin_direction_initialize *****************
   890 ;; Defined at:
   891 ;;		line 18 in file "MCAL_Layer/GPIO/hal_gpio.c"
   892 ;; Parameters:    Size  Location     Type
   893 ;;  pin_config      1    3[COMRAM] PTR const struct .
   894 ;;		 -> relayInit@pinObj(1), led_init@pin_obj(1), 
   895 ;; Auto vars:     Size  Location     Type
   896 ;;  ret             1    9[COMRAM] unsigned char 
   897 ;; Return value:  Size  Location     Type
   898 ;;                  1    wreg      unsigned char 
   899 ;; Registers used:
   900 ;;		wreg, fsr2l, fsr2h, status,2, status,0, prodl, prodh
   901 ;; Tracked objects:
   902 ;;		On entry : 0/0
   903 ;;		On exit  : 0/0
   904 ;;		Unchanged: 0/0
   905 ;; Data sizes:     COMRAM   BANK0   BANK1   BANK2   BANK3   BANK4   BANK5   BANK6   BANK7   BANK8   BANK9  BANK10  BANK1
      +1  BANK12  BANK13  BANK14  BANK15
   906 ;;      Params:         1       0       0       0       0       0       0       0       0       0       0       0       
      +0       0       0       0       0
   907 ;;      Locals:         1       0       0       0       0       0       0       0       0       0       0       0       
      +0       0       0       0       0
   908 ;;      Temps:          5       0       0       0       0       0       0       0       0       0       0       0       
      +0       0       0       0       0
   909 ;;      Totals:         7       0       0       0       0       0       0       0       0       0       0       0       
      +0       0       0       0       0
   910 ;;Total ram usage:        7 bytes
   911 ;; Hardware stack levels used: 1
   912 ;; Hardware stack levels required when called: 3
   913 ;; This function calls:
   914 ;;		Nothing
   915 ;; This function is called by:
   916 ;;		_gpio_pin_initialize
   917 ;;		_btn_init
   918 ;;		_Interrupt_RBx_Init
   919 ;; This function uses a non-reentrant model
   920 ;;
   921                           
   922                           	psect	text4
   923   00142C                     __ptext4:
   924                           	callstack 0
   925   00142C                     _gpio_pin_direction_initialize:
   926                           	callstack 25
   927   00142C                     
   928                           ;MCAL_Layer/GPIO/hal_gpio.c: 18: STD_ReturnType gpio_pin_direction_initialize(const pin_
      +                          config_t * pin_config);MCAL_Layer/GPIO/hal_gpio.c: 19: {;MCAL_Layer/GPIO/hal_gpio.c: 20:
      +                               STD_ReturnType ret = (STD_ReturnType) 0x01;
   929   00142C  0E01               	movlw	1
   930   00142E  6E57               	movwf	gpio_pin_direction_initialize@ret^0,c
   931                           
   932                           ;MCAL_Layer/GPIO/hal_gpio.c: 21:     if(((void*)0) == pin_config){
   933   001430  5051               	movf	gpio_pin_direction_initialize@pin_config^0,w,c
   934   001432  A4D8               	btfss	status,2,c
   935   001434  EF1E  F00A         	goto	u2221
   936   001438  EF20  F00A         	goto	u2220
   937   00143C                     u2221:
   938   00143C  EF77  F00A         	goto	l3569
   939   001440                     u2220:
   940   001440                     l3559:
   941                           
   942                           ;MCAL_Layer/GPIO/hal_gpio.c: 22:         ret = (STD_ReturnType) 0x00;
   943   001440  0E00               	movlw	0
   944   001442  6E57               	movwf	gpio_pin_direction_initialize@ret^0,c
   945                           
   946                           ;MCAL_Layer/GPIO/hal_gpio.c: 23:     }
   947   001444  EF97  F00A         	goto	l3571
   948   001448                     l3561:
   949                           
   950                           ;MCAL_Layer/GPIO/hal_gpio.c: 27:               (*(tris_regs[pin_config->port]) &= ~(0x01
      +                           << pin_config->pin));
   951   001448  5051               	movf	gpio_pin_direction_initialize@pin_config^0,w,c
   952   00144A  6ED9               	movwf	fsr2l,c
   953   00144C  6ADA               	clrf	fsr2h,c
   954   00144E  30DF               	rrcf	223,w,c
   955   001450  32E8               	rrcf	wreg,f,c
   956   001452  32E8               	rrcf	wreg,f,c
   957   001454  0B07               	andlw	7
   958   001456  6E52               	movwf	??_gpio_pin_direction_initialize^0,c
   959   001458  0E01               	movlw	1
   960   00145A  6E53               	movwf	(??_gpio_pin_direction_initialize+1)^0,c
   961   00145C  2A52               	incf	??_gpio_pin_direction_initialize^0,f,c
   962   00145E  EF33  F00A         	goto	u2234
   963   001462                     u2235:
   964   001462  90D8               	bcf	status,0,c
   965   001464  3653               	rlcf	(??_gpio_pin_direction_initialize+1)^0,f,c
   966   001466                     u2234:
   967   001466  2E52               	decfsz	??_gpio_pin_direction_initialize^0,f,c
   968   001468  EF31  F00A         	goto	u2235
   969   00146C  5053               	movf	(??_gpio_pin_direction_initialize+1)^0,w,c
   970   00146E  0AFF               	xorlw	255
   971   001470  6E54               	movwf	(??_gpio_pin_direction_initialize+2)^0,c
   972   001472  5051               	movf	gpio_pin_direction_initialize@pin_config^0,w,c
   973   001474  6ED9               	movwf	fsr2l,c
   974   001476  6ADA               	clrf	fsr2h,c
   975   001478  50DF               	movf	223,w,c
   976   00147A  0B07               	andlw	7
   977   00147C  0D02               	mullw	2
   978   00147E  50F3               	movf	243,w,c
   979   001480  0F3F               	addlw	low _tris_regs
   980   001482  6ED9               	movwf	fsr2l,c
   981   001484  6ADA               	clrf	fsr2h,c
   982   001486  CFDE F055          	movff	postinc2,??_gpio_pin_direction_initialize+3
   983   00148A  CFDD F056          	movff	postdec2,??_gpio_pin_direction_initialize+4
   984   00148E  C055  FFD9         	movff	??_gpio_pin_direction_initialize+3,fsr2l
   985   001492  C056  FFDA         	movff	??_gpio_pin_direction_initialize+4,fsr2h
   986   001496  5054               	movf	(??_gpio_pin_direction_initialize+2)^0,w,c
   987   001498  16DF               	andwf	indf2,f,c
   988                           
   989                           ;MCAL_Layer/GPIO/hal_gpio.c: 28:               break;
   990   00149A  EF97  F00A         	goto	l3571
   991   00149E                     l3563:
   992                           
   993                           ;MCAL_Layer/GPIO/hal_gpio.c: 31:               (*(tris_regs[pin_config->port]) |= (0x01 
      +                          << pin_config->pin));
   994   00149E  5051               	movf	gpio_pin_direction_initialize@pin_config^0,w,c
   995   0014A0  6ED9               	movwf	fsr2l,c
   996   0014A2  6ADA               	clrf	fsr2h,c
   997   0014A4  30DF               	rrcf	223,w,c
   998   0014A6  32E8               	rrcf	wreg,f,c
   999   0014A8  32E8               	rrcf	wreg,f,c
  1000   0014AA  0B07               	andlw	7
  1001   0014AC  6E52               	movwf	??_gpio_pin_direction_initialize^0,c
  1002   0014AE  0E01               	movlw	1
  1003   0014B0  6E53               	movwf	(??_gpio_pin_direction_initialize+1)^0,c
  1004   0014B2  2A52               	incf	??_gpio_pin_direction_initialize^0,f,c
  1005   0014B4  EF5E  F00A         	goto	u2244
  1006   0014B8                     u2245:
  1007   0014B8  90D8               	bcf	status,0,c
  1008   0014BA  3653               	rlcf	(??_gpio_pin_direction_initialize+1)^0,f,c
  1009   0014BC                     u2244:
  1010   0014BC  2E52               	decfsz	??_gpio_pin_direction_initialize^0,f,c
  1011   0014BE  EF5C  F00A         	goto	u2245
  1012   0014C2  5051               	movf	gpio_pin_direction_initialize@pin_config^0,w,c
  1013   0014C4  6ED9               	movwf	fsr2l,c
  1014   0014C6  6ADA               	clrf	fsr2h,c
  1015   0014C8  50DF               	movf	223,w,c
  1016   0014CA  0B07               	andlw	7
  1017   0014CC  0D02               	mullw	2
  1018   0014CE  50F3               	movf	243,w,c
  1019   0014D0  0F3F               	addlw	low _tris_regs
  1020   0014D2  6ED9               	movwf	fsr2l,c
  1021   0014D4  6ADA               	clrf	fsr2h,c
  1022   0014D6  CFDE F054          	movff	postinc2,??_gpio_pin_direction_initialize+2
  1023   0014DA  CFDD F055          	movff	postdec2,??_gpio_pin_direction_initialize+3
  1024   0014DE  C054  FFD9         	movff	??_gpio_pin_direction_initialize+2,fsr2l
  1025   0014E2  C055  FFDA         	movff	??_gpio_pin_direction_initialize+3,fsr2h
  1026   0014E6  5053               	movf	(??_gpio_pin_direction_initialize+1)^0,w,c
  1027   0014E8  12DF               	iorwf	indf2,f,c
  1028                           
  1029                           ;MCAL_Layer/GPIO/hal_gpio.c: 32:               break;
  1030   0014EA  EF97  F00A         	goto	l3571
  1031   0014EE                     l3569:
  1032   0014EE  5051               	movf	gpio_pin_direction_initialize@pin_config^0,w,c
  1033   0014F0  6ED9               	movwf	fsr2l,c
  1034   0014F2  6ADA               	clrf	fsr2h,c
  1035   0014F4  BCDF               	btfsc	indf2,6,c
  1036   0014F6  EF7F  F00A         	goto	u2251
  1037   0014FA  EF82  F00A         	goto	u2250
  1038   0014FE                     u2251:
  1039   0014FE  0E01               	movlw	1
  1040   001500  EF83  F00A         	goto	u2260
  1041   001504                     u2250:
  1042   001504  0E00               	movlw	0
  1043   001506                     u2260:
  1044   001506  6E52               	movwf	??_gpio_pin_direction_initialize^0,c
  1045   001508  6A53               	clrf	(??_gpio_pin_direction_initialize+1)^0,c
  1046                           
  1047                           ; Switch on 2 bytes has been partitioned into a top level switch of size 1, and 1 sub-sw
      +                          itches
  1048                           ; Switch size 1, requested type "simple"
  1049                           ; Number of cases is 1, Range of values is 0 to 0
  1050                           ; switch strategies available:
  1051                           ; Name         Instructions Cycles
  1052                           ; simple_byte            4     3 (average)
  1053                           ;	Chosen strategy is simple_byte
  1054   00150A  5053               	movf	(??_gpio_pin_direction_initialize+1)^0,w,c
  1055   00150C  0A00               	xorlw	0	; case 0
  1056   00150E  B4D8               	btfsc	status,2,c
  1057   001510  EF8C  F00A         	goto	l4347
  1058   001514  EF20  F00A         	goto	l3559
  1059   001518                     l4347:
  1060                           
  1061                           ; Switch size 1, requested type "simple"
  1062                           ; Number of cases is 2, Range of values is 0 to 1
  1063                           ; switch strategies available:
  1064                           ; Name         Instructions Cycles
  1065                           ; simple_byte            7     4 (average)
  1066                           ;	Chosen strategy is simple_byte
  1067   001518  5052               	movf	??_gpio_pin_direction_initialize^0,w,c
  1068   00151A  0A00               	xorlw	0	; case 0
  1069   00151C  B4D8               	btfsc	status,2,c
  1070   00151E  EF24  F00A         	goto	l3561
  1071   001522  0A01               	xorlw	1	; case 1
  1072   001524  B4D8               	btfsc	status,2,c
  1073   001526  EF4F  F00A         	goto	l3563
  1074   00152A  EF20  F00A         	goto	l3559
  1075   00152E                     l3571:
  1076                           
  1077                           ;MCAL_Layer/GPIO/hal_gpio.c: 38:     return ret;
  1078   00152E  5057               	movf	gpio_pin_direction_initialize@ret^0,w,c
  1079   001530  0012               	return		;funcret
  1080   001532                     __end_of_gpio_pin_direction_initialize:
  1081                           	callstack 0
  1082                           
  1083 ;; *************** function _Timer2_Init *****************
  1084 ;; Defined at:
  1085 ;;		line 22 in file "MCAL_Layer/TIMER2/hal_timer2.c"
  1086 ;; Parameters:    Size  Location     Type
  1087 ;;  obj             1    3[COMRAM] PTR const struct .
  1088 ;;		 -> main@timer2_obj(5), 
  1089 ;; Auto vars:     Size  Location     Type
  1090 ;;  ret             1    0        unsigned char 
  1091 ;; Return value:  Size  Location     Type
  1092 ;;                  1    wreg      unsigned char 
  1093 ;; Registers used:
  1094 ;;		wreg, fsr2l, fsr2h, status,2, status,0
  1095 ;; Tracked objects:
  1096 ;;		On entry : 0/0
  1097 ;;		On exit  : 0/0
  1098 ;;		Unchanged: 0/0
  1099 ;; Data sizes:     COMRAM   BANK0   BANK1   BANK2   BANK3   BANK4   BANK5   BANK6   BANK7   BANK8   BANK9  BANK10  BANK1
      +1  BANK12  BANK13  BANK14  BANK15
  1100 ;;      Params:         1       0       0       0       0       0       0       0       0       0       0       0       
      +0       0       0       0       0
  1101 ;;      Locals:         0       0       0       0       0       0       0       0       0       0       0       0       
      +0       0       0       0       0
  1102 ;;      Temps:          1       0       0       0       0       0       0       0       0       0       0       0       
      +0       0       0       0       0
  1103 ;;      Totals:         2       0       0       0       0       0       0       0       0       0       0       0       
      +0       0       0       0       0
  1104 ;;Total ram usage:        2 bytes
  1105 ;; Hardware stack levels used: 1
  1106 ;; Hardware stack levels required when called: 3
  1107 ;; This function calls:
  1108 ;;		Nothing
  1109 ;; This function is called by:
  1110 ;;		_main
  1111 ;; This function uses a non-reentrant model
  1112 ;;
  1113                           
  1114                           	psect	text5
  1115   001532                     __ptext5:
  1116                           	callstack 0
  1117   001532                     _Timer2_Init:
  1118                           	callstack 27
  1119   001532                     
  1120                           ;MCAL_Layer/TIMER2/hal_timer2.c: 24:     if (((void*)0) == obj) {
  1121   001532  5051               	movf	Timer2_Init@obj^0,w,c
  1122   001534  A4D8               	btfss	status,2,c
  1123   001536  EF9F  F00A         	goto	u2471
  1124   00153A  EFA1  F00A         	goto	u2470
  1125   00153E                     u2471:
  1126   00153E  EFA3  F00A         	goto	l1003
  1127   001542                     u2470:
  1128   001542                     
  1129                           ;MCAL_Layer/TIMER2/hal_timer2.c: 27:     } else {
  1130   001542  EFDB  F00A         	goto	l1005
  1131   001546                     l1003:
  1132                           
  1133                           ;MCAL_Layer/TIMER2/hal_timer2.c: 28:         (T2CONbits.TMR2ON = 0);
  1134   001546  94CA               	bcf	202,2,c	;volatile
  1135   001548                     
  1136                           ;MCAL_Layer/TIMER2/hal_timer2.c: 30:         (T2CONbits.T2CKPS = obj->preScalerValue);
  1137   001548  5051               	movf	Timer2_Init@obj^0,w,c
  1138   00154A  6ED9               	movwf	fsr2l,c
  1139   00154C  6ADA               	clrf	fsr2h,c
  1140   00154E  0E04               	movlw	4
  1141   001550  26D9               	addwf	fsr2l,f,c
  1142   001552  38DF               	swapf	223,w,c
  1143   001554  0B03               	andlw	3
  1144   001556  6E52               	movwf	??_Timer2_Init^0,c
  1145   001558  50CA               	movf	202,w,c	;volatile
  1146   00155A  1852               	xorwf	??_Timer2_Init^0,w,c
  1147   00155C  0BFC               	andlw	-4
  1148   00155E  1852               	xorwf	??_Timer2_Init^0,w,c
  1149   001560  6ECA               	movwf	202,c	;volatile
  1150                           
  1151                           ;MCAL_Layer/TIMER2/hal_timer2.c: 31:         (T2CONbits.TOUTPS = obj->postScalerValue);
  1152   001562  5051               	movf	Timer2_Init@obj^0,w,c
  1153   001564  6ED9               	movwf	fsr2l,c
  1154   001566  6ADA               	clrf	fsr2h,c
  1155   001568  0E04               	movlw	4
  1156   00156A  26D9               	addwf	fsr2l,f,c
  1157   00156C  50DF               	movf	223,w,c
  1158   00156E  0B0F               	andlw	15
  1159   001570  6E52               	movwf	??_Timer2_Init^0,c
  1160   001572  4652               	rlncf	??_Timer2_Init^0,f,c
  1161   001574  4652               	rlncf	??_Timer2_Init^0,f,c
  1162   001576  4652               	rlncf	??_Timer2_Init^0,f,c
  1163   001578  50CA               	movf	202,w,c	;volatile
  1164   00157A  1852               	xorwf	??_Timer2_Init^0,w,c
  1165   00157C  0B87               	andlw	-121
  1166   00157E  1852               	xorwf	??_Timer2_Init^0,w,c
  1167   001580  6ECA               	movwf	202,c	;volatile
  1168                           
  1169                           ;MCAL_Layer/TIMER2/hal_timer2.c: 32:         preVal = obj->preLoadedValue;
  1170   001582  5051               	movf	Timer2_Init@obj^0,w,c
  1171   001584  6ED9               	movwf	fsr2l,c
  1172   001586  6ADA               	clrf	fsr2h,c
  1173   001588  0E03               	movlw	3
  1174   00158A  26D9               	addwf	fsr2l,f,c
  1175   00158C  50DF               	movf	indf2,w,c
  1176   00158E  6E23               	movwf	_preVal^0,c
  1177                           
  1178                           ;MCAL_Layer/TIMER2/hal_timer2.c: 33:         TMR2 = obj->preLoadedValue;
  1179   001590  5051               	movf	Timer2_Init@obj^0,w,c
  1180   001592  6ED9               	movwf	fsr2l,c
  1181   001594  6ADA               	clrf	fsr2h,c
  1182   001596  0E03               	movlw	3
  1183   001598  26D9               	addwf	fsr2l,f,c
  1184   00159A  50DF               	movf	indf2,w,c
  1185   00159C  6ECC               	movwf	204,c	;volatile
  1186   00159E                     
  1187                           ;MCAL_Layer/TIMER2/hal_timer2.c: 36:         (PIR1bits.TMR2IF = 0);
  1188   00159E  929E               	bcf	158,1,c	;volatile
  1189   0015A0                     
  1190                           ;MCAL_Layer/TIMER2/hal_timer2.c: 37:         (PIE1bits.TMR2IE = 1);
  1191   0015A0  829D               	bsf	157,1,c	;volatile
  1192   0015A2                     
  1193                           ;MCAL_Layer/TIMER2/hal_timer2.c: 38:         timer2_interrupt_handler = obj->tmr2CallBac
      +                          k;
  1194   0015A2  5051               	movf	Timer2_Init@obj^0,w,c
  1195   0015A4  6ED9               	movwf	fsr2l,c
  1196   0015A6  6ADA               	clrf	fsr2h,c
  1197   0015A8  CFDE F001          	movff	postinc2,_timer2_interrupt_handler
  1198   0015AC  CFDD F002          	movff	postdec2,_timer2_interrupt_handler+1
  1199   0015B0                     
  1200                           ;MCAL_Layer/TIMER2/hal_timer2.c: 50:         (INTCONbits.GIE = 1);
  1201   0015B0  8EF2               	bsf	242,7,c	;volatile
  1202   0015B2                     
  1203                           ;MCAL_Layer/TIMER2/hal_timer2.c: 51:         (INTCONbits.PEIE = 1);
  1204   0015B2  8CF2               	bsf	242,6,c	;volatile
  1205   0015B4                     
  1206                           ;MCAL_Layer/TIMER2/hal_timer2.c: 54:         (T2CONbits.TMR2ON = 1);
  1207   0015B4  84CA               	bsf	202,2,c	;volatile
  1208   0015B6                     l1005:
  1209   0015B6  0012               	return		;funcret
  1210   0015B8                     __end_of_Timer2_Init:
  1211                           	callstack 0
  1212                           
  1213 ;; *************** function _InterruptManager *****************
  1214 ;; Defined at:
  1215 ;;		line 39 in file "C:/Users/Om562/MPLABXProjects/PIC18/MCAL_Layer/Interrupt/mcal_interrupt_manager.c"
  1216 ;; Parameters:    Size  Location     Type
  1217 ;;		None
  1218 ;; Auto vars:     Size  Location     Type
  1219 ;;		None
  1220 ;; Return value:  Size  Location     Type
  1221 ;;                  1    wreg      void 
  1222 ;; Registers used:
  1223 ;;		wreg, status,2, status,0, pcl, pclath, pclatu, tosl, cstack
  1224 ;; Tracked objects:
  1225 ;;		On entry : 0/0
  1226 ;;		On exit  : 0/0
  1227 ;;		Unchanged: 0/0
  1228 ;; Data sizes:     COMRAM   BANK0   BANK1   BANK2   BANK3   BANK4   BANK5   BANK6   BANK7   BANK8   BANK9  BANK10  BANK1
      +1  BANK12  BANK13  BANK14  BANK15
  1229 ;;      Params:         0       0       0       0       0       0       0       0       0       0       0       0       
      +0       0       0       0       0
  1230 ;;      Locals:         0       0       0       0       0       0       0       0       0       0       0       0       
      +0       0       0       0       0
  1231 ;;      Temps:          2       0       0       0       0       0       0       0       0       0       0       0       
      +0       0       0       0       0
  1232 ;;      Totals:         2       0       0       0       0       0       0       0       0       0       0       0       
      +0       0       0       0       0
  1233 ;;Total ram usage:        2 bytes
  1234 ;; Hardware stack levels used: 1
  1235 ;; Hardware stack levels required when called: 2
  1236 ;; This function calls:
  1237 ;;		_ADC_ISR
  1238 ;;		_INT0_ISR
  1239 ;;		_INT1_ISR
  1240 ;;		_INT2_ISR
  1241 ;;		_RB4_ISR
  1242 ;;		_RB5_ISR
  1243 ;;		_RB6_ISR
  1244 ;;		_RB7_ISR
  1245 ;;		_TMR0_ISR
  1246 ;;		_TMR1_ISR
  1247 ;;		_TMR2_ISR
  1248 ;; This function is called by:
  1249 ;;		Interrupt level 2
  1250 ;; This function uses a non-reentrant model
  1251 ;;
  1252                           
  1253                           	psect	intcode
  1254   000008                     __pintcode:
  1255                           	callstack 0
  1256   000008                     _InterruptManager:
  1257                           	callstack 25
  1258                           
  1259                           ;incstack = 0
  1260   000008  8263               	bsf	int$flags,1,c	;set compiler interrupt flag (level 2)
  1261   00000A  ED03  F008         	call	int_func,f	;refresh shadow registers
  1262                           
  1263                           	psect	intcode_body
  1264   001006                     __pintcode_body:
  1265                           	callstack 25
  1266   001006                     int_func:
  1267                           	callstack 25
  1268   001006  0006               	pop		; remove dummy address from shadow register refresh
  1269   001008  CFFA F04F          	movff	pclath,??_InterruptManager
  1270   00100C  CFFB F050          	movff	pclatu,??_InterruptManager+1
  1271   001010                     
  1272                           ;C:/Users/Om562/MPLABXProjects/PIC18/MCAL_Layer/Interrupt/mcal_interrupt_manager.c: 43: 
      +                           if ((INTCONbits.INT0IE == 1) && (INTCONbits.INT0IF == 1)) {
  1273   001010  A8F2               	btfss	242,4,c	;volatile
  1274   001012  EF0D  F008         	goto	i2u142_41
  1275   001016  EF0F  F008         	goto	i2u142_40
  1276   00101A                     i2u142_41:
  1277   00101A  EF18  F008         	goto	i2l3157
  1278   00101E                     i2u142_40:
  1279   00101E  A2F2               	btfss	242,1,c	;volatile
  1280   001020  EF14  F008         	goto	i2u143_41
  1281   001024  EF16  F008         	goto	i2u143_40
  1282   001028                     i2u143_41:
  1283   001028  EF18  F008         	goto	i2l3157
  1284   00102C                     i2u143_40:
  1285   00102C                     
  1286                           ;C:/Users/Om562/MPLABXProjects/PIC18/MCAL_Layer/Interrupt/mcal_interrupt_manager.c: 44: 
      +                            INT0_ISR();
  1287   00102C  ECA9  F00B         	call	_INT0_ISR	;wreg free
  1288   001030                     i2l3157:
  1289                           
  1290                           ;C:/Users/Om562/MPLABXProjects/PIC18/MCAL_Layer/Interrupt/mcal_interrupt_manager.c: 46: 
      +                           if ((INTCON3bits.INT1E == 1) && (INTCON3bits.INT1IF == 1)) {
  1291   001030  A6F0               	btfss	240,3,c	;volatile
  1292   001032  EF1D  F008         	goto	i2u144_41
  1293   001036  EF1F  F008         	goto	i2u144_40
  1294   00103A                     i2u144_41:
  1295   00103A  EF28  F008         	goto	i2l3163
  1296   00103E                     i2u144_40:
  1297   00103E  A0F0               	btfss	240,0,c	;volatile
  1298   001040  EF24  F008         	goto	i2u145_41
  1299   001044  EF26  F008         	goto	i2u145_40
  1300   001048                     i2u145_41:
  1301   001048  EF28  F008         	goto	i2l3163
  1302   00104C                     i2u145_40:
  1303   00104C                     
  1304                           ;C:/Users/Om562/MPLABXProjects/PIC18/MCAL_Layer/Interrupt/mcal_interrupt_manager.c: 47: 
      +                            INT1_ISR();
  1305   00104C  ECA7  F00B         	call	_INT1_ISR	;wreg free
  1306   001050                     i2l3163:
  1307                           
  1308                           ;C:/Users/Om562/MPLABXProjects/PIC18/MCAL_Layer/Interrupt/mcal_interrupt_manager.c: 49: 
      +                           if ((INTCON3bits.INT2IE == 1) && (INTCON3bits.INT2IF == 1)) {
  1309   001050  A8F0               	btfss	240,4,c	;volatile
  1310   001052  EF2D  F008         	goto	i2u146_41
  1311   001056  EF2F  F008         	goto	i2u146_40
  1312   00105A                     i2u146_41:
  1313   00105A  EF38  F008         	goto	i2l3169
  1314   00105E                     i2u146_40:
  1315   00105E  A2F0               	btfss	240,1,c	;volatile
  1316   001060  EF34  F008         	goto	i2u147_41
  1317   001064  EF36  F008         	goto	i2u147_40
  1318   001068                     i2u147_41:
  1319   001068  EF38  F008         	goto	i2l3169
  1320   00106C                     i2u147_40:
  1321   00106C                     
  1322                           ;C:/Users/Om562/MPLABXProjects/PIC18/MCAL_Layer/Interrupt/mcal_interrupt_manager.c: 50: 
      +                            INT2_ISR();
  1323   00106C  ECA5  F00B         	call	_INT2_ISR	;wreg free
  1324   001070                     i2l3169:
  1325                           
  1326                           ;C:/Users/Om562/MPLABXProjects/PIC18/MCAL_Layer/Interrupt/mcal_interrupt_manager.c: 57: 
      +                           if ((INTCONbits.RBIE == 1) && (INTCONbits.RBIF == 1) && (PORTBbits.RB4 == 1) &&(RB4_Fla
      +                          g == 1)) {
  1327   001070  A6F2               	btfss	242,3,c	;volatile
  1328   001072  EF3D  F008         	goto	i2u148_41
  1329   001076  EF3F  F008         	goto	i2u148_40
  1330   00107A                     i2u148_41:
  1331   00107A  EF5A  F008         	goto	i2l3181
  1332   00107E                     i2u148_40:
  1333   00107E  A0F2               	btfss	242,0,c	;volatile
  1334   001080  EF44  F008         	goto	i2u149_41
  1335   001084  EF46  F008         	goto	i2u149_40
  1336   001088                     i2u149_41:
  1337   001088  EF5A  F008         	goto	i2l3181
  1338   00108C                     i2u149_40:
  1339   00108C  A881               	btfss	129,4,c	;volatile
  1340   00108E  EF4B  F008         	goto	i2u150_41
  1341   001092  EF4D  F008         	goto	i2u150_40
  1342   001096                     i2u150_41:
  1343   001096  EF5A  F008         	goto	i2l3181
  1344   00109A                     i2u150_40:
  1345   00109A  044C               	decf	_RB4_Flag^0,w,c
  1346   00109C  A4D8               	btfss	status,2,c
  1347   00109E  EF53  F008         	goto	i2u151_41
  1348   0010A2  EF55  F008         	goto	i2u151_40
  1349   0010A6                     i2u151_41:
  1350   0010A6  EF5A  F008         	goto	i2l3181
  1351   0010AA                     i2u151_40:
  1352   0010AA                     
  1353                           ;C:/Users/Om562/MPLABXProjects/PIC18/MCAL_Layer/Interrupt/mcal_interrupt_manager.c: 58: 
      +                            RB4_Flag = 0;
  1354   0010AA  0E00               	movlw	0
  1355   0010AC  6E4C               	movwf	_RB4_Flag^0,c
  1356   0010AE                     
  1357                           ;C:/Users/Om562/MPLABXProjects/PIC18/MCAL_Layer/Interrupt/mcal_interrupt_manager.c: 59: 
      +                            RB4_ISR(1);
  1358   0010AE  0E01               	movlw	1
  1359   0010B0  ECA3  F00B         	call	_RB4_ISR
  1360   0010B4                     i2l3181:
  1361                           
  1362                           ;C:/Users/Om562/MPLABXProjects/PIC18/MCAL_Layer/Interrupt/mcal_interrupt_manager.c: 61: 
      +                           if ((INTCONbits.RBIE == 1) && (INTCONbits.RBIF == 1) && (PORTBbits.RB4 == 0) &&(RB4_Fla
      +                          g == 0)) {
  1363   0010B4  A6F2               	btfss	242,3,c	;volatile
  1364   0010B6  EF5F  F008         	goto	i2u152_41
  1365   0010BA  EF61  F008         	goto	i2u152_40
  1366   0010BE                     i2u152_41:
  1367   0010BE  EF7C  F008         	goto	i2l3193
  1368   0010C2                     i2u152_40:
  1369   0010C2  A0F2               	btfss	242,0,c	;volatile
  1370   0010C4  EF66  F008         	goto	i2u153_41
  1371   0010C8  EF68  F008         	goto	i2u153_40
  1372   0010CC                     i2u153_41:
  1373   0010CC  EF7C  F008         	goto	i2l3193
  1374   0010D0                     i2u153_40:
  1375   0010D0  B881               	btfsc	129,4,c	;volatile
  1376   0010D2  EF6D  F008         	goto	i2u154_41
  1377   0010D6  EF6F  F008         	goto	i2u154_40
  1378   0010DA                     i2u154_41:
  1379   0010DA  EF7C  F008         	goto	i2l3193
  1380   0010DE                     i2u154_40:
  1381   0010DE  504C               	movf	_RB4_Flag^0,w,c
  1382   0010E0  A4D8               	btfss	status,2,c
  1383   0010E2  EF75  F008         	goto	i2u155_41
  1384   0010E6  EF77  F008         	goto	i2u155_40
  1385   0010EA                     i2u155_41:
  1386   0010EA  EF7C  F008         	goto	i2l3193
  1387   0010EE                     i2u155_40:
  1388   0010EE                     
  1389                           ;C:/Users/Om562/MPLABXProjects/PIC18/MCAL_Layer/Interrupt/mcal_interrupt_manager.c: 62: 
      +                            RB4_Flag = 1;
  1390   0010EE  0E01               	movlw	1
  1391   0010F0  6E4C               	movwf	_RB4_Flag^0,c
  1392   0010F2                     
  1393                           ;C:/Users/Om562/MPLABXProjects/PIC18/MCAL_Layer/Interrupt/mcal_interrupt_manager.c: 63: 
      +                            RB4_ISR(0);
  1394   0010F2  0E00               	movlw	0
  1395   0010F4  ECA3  F00B         	call	_RB4_ISR
  1396   0010F8                     i2l3193:
  1397                           
  1398                           ;C:/Users/Om562/MPLABXProjects/PIC18/MCAL_Layer/Interrupt/mcal_interrupt_manager.c: 66: 
      +                           if ((INTCONbits.RBIE == 1) && (INTCONbits.RBIF == 1) && (PORTBbits.RB5 == 1) &&(RB5_Fla
      +                          g == 1)) {
  1399   0010F8  A6F2               	btfss	242,3,c	;volatile
  1400   0010FA  EF81  F008         	goto	i2u156_41
  1401   0010FE  EF83  F008         	goto	i2u156_40
  1402   001102                     i2u156_41:
  1403   001102  EF9E  F008         	goto	i2l3205
  1404   001106                     i2u156_40:
  1405   001106  A0F2               	btfss	242,0,c	;volatile
  1406   001108  EF88  F008         	goto	i2u157_41
  1407   00110C  EF8A  F008         	goto	i2u157_40
  1408   001110                     i2u157_41:
  1409   001110  EF9E  F008         	goto	i2l3205
  1410   001114                     i2u157_40:
  1411   001114  AA81               	btfss	129,5,c	;volatile
  1412   001116  EF8F  F008         	goto	i2u158_41
  1413   00111A  EF91  F008         	goto	i2u158_40
  1414   00111E                     i2u158_41:
  1415   00111E  EF9E  F008         	goto	i2l3205
  1416   001122                     i2u158_40:
  1417   001122  044B               	decf	_RB5_Flag^0,w,c
  1418   001124  A4D8               	btfss	status,2,c
  1419   001126  EF97  F008         	goto	i2u159_41
  1420   00112A  EF99  F008         	goto	i2u159_40
  1421   00112E                     i2u159_41:
  1422   00112E  EF9E  F008         	goto	i2l3205
  1423   001132                     i2u159_40:
  1424   001132                     
  1425                           ;C:/Users/Om562/MPLABXProjects/PIC18/MCAL_Layer/Interrupt/mcal_interrupt_manager.c: 67: 
      +                            RB5_Flag = 0;
  1426   001132  0E00               	movlw	0
  1427   001134  6E4B               	movwf	_RB5_Flag^0,c
  1428   001136                     
  1429                           ;C:/Users/Om562/MPLABXProjects/PIC18/MCAL_Layer/Interrupt/mcal_interrupt_manager.c: 68: 
      +                            RB5_ISR(1);
  1430   001136  0E01               	movlw	1
  1431   001138  ECA1  F00B         	call	_RB5_ISR
  1432   00113C                     i2l3205:
  1433                           
  1434                           ;C:/Users/Om562/MPLABXProjects/PIC18/MCAL_Layer/Interrupt/mcal_interrupt_manager.c: 70: 
      +                           if ((INTCONbits.RBIE == 1) && (INTCONbits.RBIF == 1) && (PORTBbits.RB5 == 0) &&(RB5_Fla
      +                          g == 0)) {
  1435   00113C  A6F2               	btfss	242,3,c	;volatile
  1436   00113E  EFA3  F008         	goto	i2u160_41
  1437   001142  EFA5  F008         	goto	i2u160_40
  1438   001146                     i2u160_41:
  1439   001146  EFC0  F008         	goto	i2l3217
  1440   00114A                     i2u160_40:
  1441   00114A  A0F2               	btfss	242,0,c	;volatile
  1442   00114C  EFAA  F008         	goto	i2u161_41
  1443   001150  EFAC  F008         	goto	i2u161_40
  1444   001154                     i2u161_41:
  1445   001154  EFC0  F008         	goto	i2l3217
  1446   001158                     i2u161_40:
  1447   001158  BA81               	btfsc	129,5,c	;volatile
  1448   00115A  EFB1  F008         	goto	i2u162_41
  1449   00115E  EFB3  F008         	goto	i2u162_40
  1450   001162                     i2u162_41:
  1451   001162  EFC0  F008         	goto	i2l3217
  1452   001166                     i2u162_40:
  1453   001166  504B               	movf	_RB5_Flag^0,w,c
  1454   001168  A4D8               	btfss	status,2,c
  1455   00116A  EFB9  F008         	goto	i2u163_41
  1456   00116E  EFBB  F008         	goto	i2u163_40
  1457   001172                     i2u163_41:
  1458   001172  EFC0  F008         	goto	i2l3217
  1459   001176                     i2u163_40:
  1460   001176                     
  1461                           ;C:/Users/Om562/MPLABXProjects/PIC18/MCAL_Layer/Interrupt/mcal_interrupt_manager.c: 71: 
      +                            RB5_Flag = 1;
  1462   001176  0E01               	movlw	1
  1463   001178  6E4B               	movwf	_RB5_Flag^0,c
  1464   00117A                     
  1465                           ;C:/Users/Om562/MPLABXProjects/PIC18/MCAL_Layer/Interrupt/mcal_interrupt_manager.c: 72: 
      +                            RB5_ISR(0);
  1466   00117A  0E00               	movlw	0
  1467   00117C  ECA1  F00B         	call	_RB5_ISR
  1468   001180                     i2l3217:
  1469                           
  1470                           ;C:/Users/Om562/MPLABXProjects/PIC18/MCAL_Layer/Interrupt/mcal_interrupt_manager.c: 76: 
      +                           if ((INTCONbits.RBIE == 1) && (INTCONbits.RBIF == 1) && (PORTBbits.RB6 == 1) &&(RB6_Fla
      +                          g == 1)) {
  1471   001180  A6F2               	btfss	242,3,c	;volatile
  1472   001182  EFC5  F008         	goto	i2u164_41
  1473   001186  EFC7  F008         	goto	i2u164_40
  1474   00118A                     i2u164_41:
  1475   00118A  EFE2  F008         	goto	i2l3229
  1476   00118E                     i2u164_40:
  1477   00118E  A0F2               	btfss	242,0,c	;volatile
  1478   001190  EFCC  F008         	goto	i2u165_41
  1479   001194  EFCE  F008         	goto	i2u165_40
  1480   001198                     i2u165_41:
  1481   001198  EFE2  F008         	goto	i2l3229
  1482   00119C                     i2u165_40:
  1483   00119C  AC81               	btfss	129,6,c	;volatile
  1484   00119E  EFD3  F008         	goto	i2u166_41
  1485   0011A2  EFD5  F008         	goto	i2u166_40
  1486   0011A6                     i2u166_41:
  1487   0011A6  EFE2  F008         	goto	i2l3229
  1488   0011AA                     i2u166_40:
  1489   0011AA  044A               	decf	_RB6_Flag^0,w,c
  1490   0011AC  A4D8               	btfss	status,2,c
  1491   0011AE  EFDB  F008         	goto	i2u167_41
  1492   0011B2  EFDD  F008         	goto	i2u167_40
  1493   0011B6                     i2u167_41:
  1494   0011B6  EFE2  F008         	goto	i2l3229
  1495   0011BA                     i2u167_40:
  1496   0011BA                     
  1497                           ;C:/Users/Om562/MPLABXProjects/PIC18/MCAL_Layer/Interrupt/mcal_interrupt_manager.c: 77: 
      +                            RB6_Flag = 0;
  1498   0011BA  0E00               	movlw	0
  1499   0011BC  6E4A               	movwf	_RB6_Flag^0,c
  1500   0011BE                     
  1501                           ;C:/Users/Om562/MPLABXProjects/PIC18/MCAL_Layer/Interrupt/mcal_interrupt_manager.c: 78: 
      +                            RB6_ISR(1);
  1502   0011BE  0E01               	movlw	1
  1503   0011C0  EC9F  F00B         	call	_RB6_ISR
  1504   0011C4                     i2l3229:
  1505                           
  1506                           ;C:/Users/Om562/MPLABXProjects/PIC18/MCAL_Layer/Interrupt/mcal_interrupt_manager.c: 80: 
      +                           if ((INTCONbits.RBIE == 1) && (INTCONbits.RBIF == 1) && (PORTBbits.RB6 == 0) &&(RB6_Fla
      +                          g == 0)) {
  1507   0011C4  A6F2               	btfss	242,3,c	;volatile
  1508   0011C6  EFE7  F008         	goto	i2u168_41
  1509   0011CA  EFE9  F008         	goto	i2u168_40
  1510   0011CE                     i2u168_41:
  1511   0011CE  EF04  F009         	goto	i2l3241
  1512   0011D2                     i2u168_40:
  1513   0011D2  A0F2               	btfss	242,0,c	;volatile
  1514   0011D4  EFEE  F008         	goto	i2u169_41
  1515   0011D8  EFF0  F008         	goto	i2u169_40
  1516   0011DC                     i2u169_41:
  1517   0011DC  EF04  F009         	goto	i2l3241
  1518   0011E0                     i2u169_40:
  1519   0011E0  BC81               	btfsc	129,6,c	;volatile
  1520   0011E2  EFF5  F008         	goto	i2u170_41
  1521   0011E6  EFF7  F008         	goto	i2u170_40
  1522   0011EA                     i2u170_41:
  1523   0011EA  EF04  F009         	goto	i2l3241
  1524   0011EE                     i2u170_40:
  1525   0011EE  504A               	movf	_RB6_Flag^0,w,c
  1526   0011F0  A4D8               	btfss	status,2,c
  1527   0011F2  EFFD  F008         	goto	i2u171_41
  1528   0011F6  EFFF  F008         	goto	i2u171_40
  1529   0011FA                     i2u171_41:
  1530   0011FA  EF04  F009         	goto	i2l3241
  1531   0011FE                     i2u171_40:
  1532   0011FE                     
  1533                           ;C:/Users/Om562/MPLABXProjects/PIC18/MCAL_Layer/Interrupt/mcal_interrupt_manager.c: 81: 
      +                            RB6_Flag = 1;
  1534   0011FE  0E01               	movlw	1
  1535   001200  6E4A               	movwf	_RB6_Flag^0,c
  1536   001202                     
  1537                           ;C:/Users/Om562/MPLABXProjects/PIC18/MCAL_Layer/Interrupt/mcal_interrupt_manager.c: 82: 
      +                            RB6_ISR(0);
  1538   001202  0E00               	movlw	0
  1539   001204  EC9F  F00B         	call	_RB6_ISR
  1540   001208                     i2l3241:
  1541                           
  1542                           ;C:/Users/Om562/MPLABXProjects/PIC18/MCAL_Layer/Interrupt/mcal_interrupt_manager.c: 86: 
      +                           if ((INTCONbits.RBIE == 1) && (INTCONbits.RBIF == 1) && (PORTBbits.RB7 == 1) &&(RB7_Fla
      +                          g == 1)) {
  1543   001208  A6F2               	btfss	242,3,c	;volatile
  1544   00120A  EF09  F009         	goto	i2u172_41
  1545   00120E  EF0B  F009         	goto	i2u172_40
  1546   001212                     i2u172_41:
  1547   001212  EF26  F009         	goto	i2l3253
  1548   001216                     i2u172_40:
  1549   001216  A0F2               	btfss	242,0,c	;volatile
  1550   001218  EF10  F009         	goto	i2u173_41
  1551   00121C  EF12  F009         	goto	i2u173_40
  1552   001220                     i2u173_41:
  1553   001220  EF26  F009         	goto	i2l3253
  1554   001224                     i2u173_40:
  1555   001224  AE81               	btfss	129,7,c	;volatile
  1556   001226  EF17  F009         	goto	i2u174_41
  1557   00122A  EF19  F009         	goto	i2u174_40
  1558   00122E                     i2u174_41:
  1559   00122E  EF26  F009         	goto	i2l3253
  1560   001232                     i2u174_40:
  1561   001232  0449               	decf	_RB7_Flag^0,w,c
  1562   001234  A4D8               	btfss	status,2,c
  1563   001236  EF1F  F009         	goto	i2u175_41
  1564   00123A  EF21  F009         	goto	i2u175_40
  1565   00123E                     i2u175_41:
  1566   00123E  EF26  F009         	goto	i2l3253
  1567   001242                     i2u175_40:
  1568   001242                     
  1569                           ;C:/Users/Om562/MPLABXProjects/PIC18/MCAL_Layer/Interrupt/mcal_interrupt_manager.c: 87: 
      +                            RB7_Flag = 0;
  1570   001242  0E00               	movlw	0
  1571   001244  6E49               	movwf	_RB7_Flag^0,c
  1572   001246                     
  1573                           ;C:/Users/Om562/MPLABXProjects/PIC18/MCAL_Layer/Interrupt/mcal_interrupt_manager.c: 88: 
      +                            RB7_ISR(1);
  1574   001246  0E01               	movlw	1
  1575   001248  EC9D  F00B         	call	_RB7_ISR
  1576   00124C                     i2l3253:
  1577                           
  1578                           ;C:/Users/Om562/MPLABXProjects/PIC18/MCAL_Layer/Interrupt/mcal_interrupt_manager.c: 90: 
      +                           if ((INTCONbits.RBIE == 1) && (INTCONbits.RBIF == 1) && (PORTBbits.RB7 == 0) &&(RB7_Fla
      +                          g == 0)) {
  1579   00124C  A6F2               	btfss	242,3,c	;volatile
  1580   00124E  EF2B  F009         	goto	i2u176_41
  1581   001252  EF2D  F009         	goto	i2u176_40
  1582   001256                     i2u176_41:
  1583   001256  EF48  F009         	goto	i2l3265
  1584   00125A                     i2u176_40:
  1585   00125A  A0F2               	btfss	242,0,c	;volatile
  1586   00125C  EF32  F009         	goto	i2u177_41
  1587   001260  EF34  F009         	goto	i2u177_40
  1588   001264                     i2u177_41:
  1589   001264  EF48  F009         	goto	i2l3265
  1590   001268                     i2u177_40:
  1591   001268  BE81               	btfsc	129,7,c	;volatile
  1592   00126A  EF39  F009         	goto	i2u178_41
  1593   00126E  EF3B  F009         	goto	i2u178_40
  1594   001272                     i2u178_41:
  1595   001272  EF48  F009         	goto	i2l3265
  1596   001276                     i2u178_40:
  1597   001276  5049               	movf	_RB7_Flag^0,w,c
  1598   001278  A4D8               	btfss	status,2,c
  1599   00127A  EF41  F009         	goto	i2u179_41
  1600   00127E  EF43  F009         	goto	i2u179_40
  1601   001282                     i2u179_41:
  1602   001282  EF48  F009         	goto	i2l3265
  1603   001286                     i2u179_40:
  1604   001286                     
  1605                           ;C:/Users/Om562/MPLABXProjects/PIC18/MCAL_Layer/Interrupt/mcal_interrupt_manager.c: 91: 
      +                            RB7_Flag = 1;
  1606   001286  0E01               	movlw	1
  1607   001288  6E49               	movwf	_RB7_Flag^0,c
  1608   00128A                     
  1609                           ;C:/Users/Om562/MPLABXProjects/PIC18/MCAL_Layer/Interrupt/mcal_interrupt_manager.c: 92: 
      +                            RB7_ISR(0);
  1610   00128A  0E00               	movlw	0
  1611   00128C  EC9D  F00B         	call	_RB7_ISR
  1612   001290                     i2l3265:
  1613                           
  1614                           ;C:/Users/Om562/MPLABXProjects/PIC18/MCAL_Layer/Interrupt/mcal_interrupt_manager.c: 97: 
      +                           if ((PIE1bits.ADIE == 1) && (PIR1bits.ADIF == 1)) {
  1615   001290  AC9D               	btfss	157,6,c	;volatile
  1616   001292  EF4D  F009         	goto	i2u180_41
  1617   001296  EF4F  F009         	goto	i2u180_40
  1618   00129A                     i2u180_41:
  1619   00129A  EF58  F009         	goto	i2l3271
  1620   00129E                     i2u180_40:
  1621   00129E  AC9E               	btfss	158,6,c	;volatile
  1622   0012A0  EF54  F009         	goto	i2u181_41
  1623   0012A4  EF56  F009         	goto	i2u181_40
  1624   0012A8                     i2u181_41:
  1625   0012A8  EF58  F009         	goto	i2l3271
  1626   0012AC                     i2u181_40:
  1627   0012AC                     
  1628                           ;C:/Users/Om562/MPLABXProjects/PIC18/MCAL_Layer/Interrupt/mcal_interrupt_manager.c: 98: 
      +                            ADC_ISR();
  1629   0012AC  ECAB  F00B         	call	_ADC_ISR	;wreg free
  1630   0012B0                     i2l3271:
  1631                           
  1632                           ;C:/Users/Om562/MPLABXProjects/PIC18/MCAL_Layer/Interrupt/mcal_interrupt_manager.c: 103:
      +                            if ((INTCONbits.TMR0IE == 1) && (INTCONbits.TMR0IF == 1)) {
  1633   0012B0  AAF2               	btfss	242,5,c	;volatile
  1634   0012B2  EF5D  F009         	goto	i2u182_41
  1635   0012B6  EF5F  F009         	goto	i2u182_40
  1636   0012BA                     i2u182_41:
  1637   0012BA  EF68  F009         	goto	i2l3277
  1638   0012BE                     i2u182_40:
  1639   0012BE  A4F2               	btfss	242,2,c	;volatile
  1640   0012C0  EF64  F009         	goto	i2u183_41
  1641   0012C4  EF66  F009         	goto	i2u183_40
  1642   0012C8                     i2u183_41:
  1643   0012C8  EF68  F009         	goto	i2l3277
  1644   0012CC                     i2u183_40:
  1645   0012CC                     
  1646                           ;C:/Users/Om562/MPLABXProjects/PIC18/MCAL_Layer/Interrupt/mcal_interrupt_manager.c: 104:
      +                             TMR0_ISR();
  1647   0012CC  EC94  F00B         	call	_TMR0_ISR	;wreg free
  1648   0012D0                     i2l3277:
  1649                           
  1650                           ;C:/Users/Om562/MPLABXProjects/PIC18/MCAL_Layer/Interrupt/mcal_interrupt_manager.c: 107:
      +                            if ((PIE1bits.TMR1IE == 1) && (PIR1bits.TMR1IF == 1)) {
  1651   0012D0  A09D               	btfss	157,0,c	;volatile
  1652   0012D2  EF6D  F009         	goto	i2u184_41
  1653   0012D6  EF6F  F009         	goto	i2u184_40
  1654   0012DA                     i2u184_41:
  1655   0012DA  EF78  F009         	goto	i2l3283
  1656   0012DE                     i2u184_40:
  1657   0012DE  A09E               	btfss	158,0,c	;volatile
  1658   0012E0  EF74  F009         	goto	i2u185_41
  1659   0012E4  EF76  F009         	goto	i2u185_40
  1660   0012E8                     i2u185_41:
  1661   0012E8  EF78  F009         	goto	i2l3283
  1662   0012EC                     i2u185_40:
  1663   0012EC                     
  1664                           ;C:/Users/Om562/MPLABXProjects/PIC18/MCAL_Layer/Interrupt/mcal_interrupt_manager.c: 108:
      +                             TMR1_ISR();
  1665   0012EC  EC8E  F00B         	call	_TMR1_ISR	;wreg free
  1666   0012F0                     i2l3283:
  1667                           
  1668                           ;C:/Users/Om562/MPLABXProjects/PIC18/MCAL_Layer/Interrupt/mcal_interrupt_manager.c: 111:
      +                               if ((PIE1bits.TMR2IE == 1) && (PIR1bits.TMR2IF == 1)) {
  1669   0012F0  A29D               	btfss	157,1,c	;volatile
  1670   0012F2  EF7D  F009         	goto	i2u186_41
  1671   0012F6  EF7F  F009         	goto	i2u186_40
  1672   0012FA                     i2u186_41:
  1673   0012FA  EF88  F009         	goto	i2l822
  1674   0012FE                     i2u186_40:
  1675   0012FE  A29E               	btfss	158,1,c	;volatile
  1676   001300  EF84  F009         	goto	i2u187_41
  1677   001304  EF86  F009         	goto	i2u187_40
  1678   001308                     i2u187_41:
  1679   001308  EF88  F009         	goto	i2l822
  1680   00130C                     i2u187_40:
  1681   00130C                     
  1682                           ;C:/Users/Om562/MPLABXProjects/PIC18/MCAL_Layer/Interrupt/mcal_interrupt_manager.c: 112:
      +                             TMR2_ISR();
  1683   00130C  EC4B  F00B         	call	_TMR2_ISR	;wreg free
  1684   001310                     i2l822:
  1685   001310  C050  FFFB         	movff	??_InterruptManager+1,pclatu
  1686   001314  C04F  FFFA         	movff	??_InterruptManager,pclath
  1687   001318  9263               	bcf	int$flags,1,c	;clear compiler interrupt flag (level 2)
  1688   00131A  0011               	retfie		f
  1689   00131C                     __end_of_InterruptManager:
  1690                           	callstack 0
  1691                           
  1692 ;; *************** function _TMR2_ISR *****************
  1693 ;; Defined at:
  1694 ;;		line 14 in file "MCAL_Layer/TIMER2/hal_timer2.c"
  1695 ;; Parameters:    Size  Location     Type
  1696 ;;		None
  1697 ;; Auto vars:     Size  Location     Type
  1698 ;;		None
  1699 ;; Return value:  Size  Location     Type
  1700 ;;                  1    wreg      void 
  1701 ;; Registers used:
  1702 ;;		wreg, status,2, status,0, pcl, pclath, pclatu, tosl, cstack
  1703 ;; Tracked objects:
  1704 ;;		On entry : 0/0
  1705 ;;		On exit  : 0/0
  1706 ;;		Unchanged: 0/0
  1707 ;; Data sizes:     COMRAM   BANK0   BANK1   BANK2   BANK3   BANK4   BANK5   BANK6   BANK7   BANK8   BANK9  BANK10  BANK1
      +1  BANK12  BANK13  BANK14  BANK15
  1708 ;;      Params:         0       0       0       0       0       0       0       0       0       0       0       0       
      +0       0       0       0       0
  1709 ;;      Locals:         0       0       0       0       0       0       0       0       0       0       0       0       
      +0       0       0       0       0
  1710 ;;      Temps:          0       0       0       0       0       0       0       0       0       0       0       0       
      +0       0       0       0       0
  1711 ;;      Totals:         0       0       0       0       0       0       0       0       0       0       0       0       
      +0       0       0       0       0
  1712 ;;Total ram usage:        0 bytes
  1713 ;; Hardware stack levels used: 1
  1714 ;; Hardware stack levels required when called: 1
  1715 ;; This function calls:
  1716 ;;		NULL
  1717 ;;		_fun
  1718 ;; This function is called by:
  1719 ;;		_InterruptManager
  1720 ;; This function uses a non-reentrant model
  1721 ;;
  1722                           
  1723                           	psect	text7
  1724   001696                     __ptext7:
  1725                           	callstack 0
  1726   001696                     _TMR2_ISR:
  1727                           	callstack 25
  1728   001696                     
  1729                           ;MCAL_Layer/TIMER2/hal_timer2.c: 15:     (PIR1bits.TMR2IF = 0);
  1730   001696  929E               	bcf	158,1,c	;volatile
  1731                           
  1732                           ;MCAL_Layer/TIMER2/hal_timer2.c: 16:     TMR2 = preVal;
  1733   001698  C023  FFCC         	movff	_preVal,4044	;volatile
  1734   00169C                     
  1735                           ;MCAL_Layer/TIMER2/hal_timer2.c: 17:     if (timer2_interrupt_handler) {
  1736   00169C  5001               	movf	_timer2_interrupt_handler^0,w,c
  1737   00169E  1002               	iorwf	(_timer2_interrupt_handler+1)^0,w,c
  1738   0016A0  B4D8               	btfsc	status,2,c
  1739   0016A2  EF55  F00B         	goto	i2u37_41
  1740   0016A6  EF57  F00B         	goto	i2u37_40
  1741   0016AA                     i2u37_41:
  1742   0016AA  EF63  F00B         	goto	i2l1000
  1743   0016AE                     i2u37_40:
  1744   0016AE                     
  1745                           ;MCAL_Layer/TIMER2/hal_timer2.c: 18:         timer2_interrupt_handler();
  1746   0016AE  D802               	call	i2u38_48
  1747   0016B0  EF63  F00B         	goto	i2u38_49
  1748   0016B4                     i2u38_48:
  1749   0016B4  0005               	push	
  1750   0016B6  6EFA               	movwf	pclath,c
  1751   0016B8  5001               	movf	_timer2_interrupt_handler^0,w,c
  1752   0016BA  6EFD               	movwf	tosl,c
  1753   0016BC  5002               	movf	(_timer2_interrupt_handler+1)^0,w,c
  1754   0016BE  6EFE               	movwf	tosh,c
  1755   0016C0  6AFF               	clrf	tosu,c
  1756   0016C2  50FA               	movf	pclath,w,c
  1757   0016C4  0012               	return		;indir
  1758   0016C6                     i2u38_49:
  1759   0016C6                     i2l1000:
  1760   0016C6  0012               	return		;funcret
  1761   0016C8                     __end_of_TMR2_ISR:
  1762                           	callstack 0
  1763                           
  1764 ;; *************** function _fun *****************
  1765 ;; Defined at:
  1766 ;;		line 22 in file "Application.c"
  1767 ;; Parameters:    Size  Location     Type
  1768 ;;		None
  1769 ;; Auto vars:     Size  Location     Type
  1770 ;;		None
  1771 ;; Return value:  Size  Location     Type
  1772 ;;                  1    wreg      void 
  1773 ;; Registers used:
  1774 ;;		wreg, status,2, status,0
  1775 ;; Tracked objects:
  1776 ;;		On entry : 0/0
  1777 ;;		On exit  : 0/0
  1778 ;;		Unchanged: 0/0
  1779 ;; Data sizes:     COMRAM   BANK0   BANK1   BANK2   BANK3   BANK4   BANK5   BANK6   BANK7   BANK8   BANK9  BANK10  BANK1
      +1  BANK12  BANK13  BANK14  BANK15
  1780 ;;      Params:         0       0       0       0       0       0       0       0       0       0       0       0       
      +0       0       0       0       0
  1781 ;;      Locals:         0       0       0       0       0       0       0       0       0       0       0       0       
      +0       0       0       0       0
  1782 ;;      Temps:          0       0       0       0       0       0       0       0       0       0       0       0       
      +0       0       0       0       0
  1783 ;;      Totals:         0       0       0       0       0       0       0       0       0       0       0       0       
      +0       0       0       0       0
  1784 ;;Total ram usage:        0 bytes
  1785 ;; Hardware stack levels used: 1
  1786 ;; This function calls:
  1787 ;;		Nothing
  1788 ;; This function is called by:
  1789 ;;		_main
  1790 ;;		_TMR2_ISR
  1791 ;; This function uses a non-reentrant model
  1792 ;;
  1793                           
  1794                           	psect	text8
  1795   001734                     __ptext8:
  1796                           	callstack 0
  1797   001734                     _fun:
  1798                           	callstack 25
  1799   001734                     
  1800                           ;Application.c: 24:     (LATD ^= (0x01 << GPIO_PIN1));
  1801   001734  0E02               	movlw	2
  1802   001736  1A8C               	xorwf	140,f,c	;volatile
  1803   001738  0012               	return		;funcret
  1804   00173A                     __end_of_fun:
  1805                           	callstack 0
  1806                           
  1807 ;; *************** function _TMR1_ISR *****************
  1808 ;; Defined at:
  1809 ;;		line 16 in file "MCAL_Layer/TIMER1/hal_timer1.c"
  1810 ;; Parameters:    Size  Location     Type
  1811 ;;		None
  1812 ;; Auto vars:     Size  Location     Type
  1813 ;;		None
  1814 ;; Return value:  Size  Location     Type
  1815 ;;                  1    wreg      void 
  1816 ;; Registers used:
  1817 ;;		wreg, status,2
  1818 ;; Tracked objects:
  1819 ;;		On entry : 0/0
  1820 ;;		On exit  : 0/0
  1821 ;;		Unchanged: 0/0
  1822 ;; Data sizes:     COMRAM   BANK0   BANK1   BANK2   BANK3   BANK4   BANK5   BANK6   BANK7   BANK8   BANK9  BANK10  BANK1
      +1  BANK12  BANK13  BANK14  BANK15
  1823 ;;      Params:         0       0       0       0       0       0       0       0       0       0       0       0       
      +0       0       0       0       0
  1824 ;;      Locals:         0       0       0       0       0       0       0       0       0       0       0       0       
      +0       0       0       0       0
  1825 ;;      Temps:          0       0       0       0       0       0       0       0       0       0       0       0       
      +0       0       0       0       0
  1826 ;;      Totals:         0       0       0       0       0       0       0       0       0       0       0       0       
      +0       0       0       0       0
  1827 ;;Total ram usage:        0 bytes
  1828 ;; Hardware stack levels used: 1
  1829 ;; This function calls:
  1830 ;;		Nothing
  1831 ;; This function is called by:
  1832 ;;		_InterruptManager
  1833 ;; This function uses a non-reentrant model
  1834 ;;
  1835                           
  1836                           	psect	text9
  1837   00171C                     __ptext9:
  1838                           	callstack 0
  1839   00171C                     _TMR1_ISR:
  1840                           	callstack 26
  1841   00171C                     
  1842                           ;MCAL_Layer/TIMER1/hal_timer1.c: 17:     (PIR1bits.TMR1IF = 0);
  1843   00171C  909E               	bcf	158,0,c	;volatile
  1844   00171E                     
  1845                           ;MCAL_Layer/TIMER1/hal_timer1.c: 18:     TMR1H = (uint8_t) (PreLoadValue) >> 8;
  1846   00171E  0E00               	movlw	0
  1847   001720  6ECF               	movwf	207,c	;volatile
  1848   001722                     
  1849                           ;MCAL_Layer/TIMER1/hal_timer1.c: 19:     TMR1L = (uint8_t) (PreLoadValue);
  1850   001722  C005  FFCE         	movff	_PreLoadValue,4046	;volatile
  1851   001726  0012               	return		;funcret
  1852   001728                     __end_of_TMR1_ISR:
  1853                           	callstack 0
  1854                           
  1855 ;; *************** function _TMR0_ISR *****************
  1856 ;; Defined at:
  1857 ;;		line 18 in file "MCAL_Layer/TIMER0/hal_timer0.c"
  1858 ;; Parameters:    Size  Location     Type
  1859 ;;		None
  1860 ;; Auto vars:     Size  Location     Type
  1861 ;;		None
  1862 ;; Return value:  Size  Location     Type
  1863 ;;                  1    wreg      void 
  1864 ;; Registers used:
  1865 ;;		wreg, status,2
  1866 ;; Tracked objects:
  1867 ;;		On entry : 0/0
  1868 ;;		On exit  : 0/0
  1869 ;;		Unchanged: 0/0
  1870 ;; Data sizes:     COMRAM   BANK0   BANK1   BANK2   BANK3   BANK4   BANK5   BANK6   BANK7   BANK8   BANK9  BANK10  BANK1
      +1  BANK12  BANK13  BANK14  BANK15
  1871 ;;      Params:         0       0       0       0       0       0       0       0       0       0       0       0       
      +0       0       0       0       0
  1872 ;;      Locals:         0       0       0       0       0       0       0       0       0       0       0       0       
      +0       0       0       0       0
  1873 ;;      Temps:          0       0       0       0       0       0       0       0       0       0       0       0       
      +0       0       0       0       0
  1874 ;;      Totals:         0       0       0       0       0       0       0       0       0       0       0       0       
      +0       0       0       0       0
  1875 ;;Total ram usage:        0 bytes
  1876 ;; Hardware stack levels used: 1
  1877 ;; This function calls:
  1878 ;;		Nothing
  1879 ;; This function is called by:
  1880 ;;		_InterruptManager
  1881 ;; This function uses a non-reentrant model
  1882 ;;
  1883                           
  1884                           	psect	text10
  1885   001728                     __ptext10:
  1886                           	callstack 0
  1887   001728                     _TMR0_ISR:
  1888                           	callstack 26
  1889   001728                     
  1890                           ;MCAL_Layer/TIMER0/hal_timer0.c: 19:     (INTCONbits.TMR0IF = 0);
  1891   001728  94F2               	bcf	242,2,c	;volatile
  1892   00172A                     
  1893                           ;MCAL_Layer/TIMER0/hal_timer0.c: 20:     TMR0H = (uint8_t) ((timer0PreloadValue) >> 8);
  1894   00172A  5008               	movf	(_timer0PreloadValue+1)^0,w,c
  1895   00172C  6ED7               	movwf	215,c	;volatile
  1896   00172E                     
  1897                           ;MCAL_Layer/TIMER0/hal_timer0.c: 21:     TMR0L = (uint8_t) (timer0PreloadValue);
  1898   00172E  C007  FFD6         	movff	_timer0PreloadValue,4054	;volatile
  1899   001732  0012               	return		;funcret
  1900   001734                     __end_of_TMR0_ISR:
  1901                           	callstack 0
  1902                           
  1903 ;; *************** function _RB7_ISR *****************
  1904 ;; Defined at:
  1905 ;;		line 93 in file "C:/Users/Om562/MPLABXProjects/PIC18/MCAL_Layer/Interrupt/mcal_external_interrupt.c"
  1906 ;; Parameters:    Size  Location     Type
  1907 ;;  src             1    wreg     unsigned char 
  1908 ;; Auto vars:     Size  Location     Type
  1909 ;;  src             1    0[COMRAM] unsigned char 
  1910 ;; Return value:  Size  Location     Type
  1911 ;;                  1    wreg      void 
  1912 ;; Registers used:
  1913 ;;		wreg
  1914 ;; Tracked objects:
  1915 ;;		On entry : 0/0
  1916 ;;		On exit  : 0/0
  1917 ;;		Unchanged: 0/0
  1918 ;; Data sizes:     COMRAM   BANK0   BANK1   BANK2   BANK3   BANK4   BANK5   BANK6   BANK7   BANK8   BANK9  BANK10  BANK1
      +1  BANK12  BANK13  BANK14  BANK15
  1919 ;;      Params:         0       0       0       0       0       0       0       0       0       0       0       0       
      +0       0       0       0       0
  1920 ;;      Locals:         1       0       0       0       0       0       0       0       0       0       0       0       
      +0       0       0       0       0
  1921 ;;      Temps:          0       0       0       0       0       0       0       0       0       0       0       0       
      +0       0       0       0       0
  1922 ;;      Totals:         1       0       0       0       0       0       0       0       0       0       0       0       
      +0       0       0       0       0
  1923 ;;Total ram usage:        1 bytes
  1924 ;; Hardware stack levels used: 1
  1925 ;; This function calls:
  1926 ;;		Nothing
  1927 ;; This function is called by:
  1928 ;;		_InterruptManager
  1929 ;; This function uses a non-reentrant model
  1930 ;;
  1931                           
  1932                           	psect	text11
  1933   00173A                     __ptext11:
  1934                           	callstack 0
  1935   00173A                     _RB7_ISR:
  1936                           	callstack 26
  1937   00173A                     
  1938                           ;C:/Users/Om562/MPLABXProjects/PIC18/MCAL_Layer/Interrupt/mcal_external_interrupt.c: 93:
      +                           void RB7_ISR(uint8_t src);C:/Users/Om562/MPLABXProjects/PIC18/MCAL_Layer/Interrupt/mcal
      +                          _external_interrupt.c: 94: {;C:/Users/Om562/MPLABXProjects/PIC18/MCAL_Layer/Interrupt/mc
      +                          al_external_interrupt.c: 95:  (INTCONbits.RBIF = 0);
  1939   00173A  90F2               	bcf	242,0,c	;volatile
  1940   00173C  0012               	return		;funcret
  1941   00173E                     __end_of_RB7_ISR:
  1942                           	callstack 0
  1943                           
  1944 ;; *************** function _RB6_ISR *****************
  1945 ;; Defined at:
  1946 ;;		line 82 in file "C:/Users/Om562/MPLABXProjects/PIC18/MCAL_Layer/Interrupt/mcal_external_interrupt.c"
  1947 ;; Parameters:    Size  Location     Type
  1948 ;;  src             1    wreg     unsigned char 
  1949 ;; Auto vars:     Size  Location     Type
  1950 ;;  src             1    0[COMRAM] unsigned char 
  1951 ;; Return value:  Size  Location     Type
  1952 ;;                  1    wreg      void 
  1953 ;; Registers used:
  1954 ;;		wreg
  1955 ;; Tracked objects:
  1956 ;;		On entry : 0/0
  1957 ;;		On exit  : 0/0
  1958 ;;		Unchanged: 0/0
  1959 ;; Data sizes:     COMRAM   BANK0   BANK1   BANK2   BANK3   BANK4   BANK5   BANK6   BANK7   BANK8   BANK9  BANK10  BANK1
      +1  BANK12  BANK13  BANK14  BANK15
  1960 ;;      Params:         0       0       0       0       0       0       0       0       0       0       0       0       
      +0       0       0       0       0
  1961 ;;      Locals:         1       0       0       0       0       0       0       0       0       0       0       0       
      +0       0       0       0       0
  1962 ;;      Temps:          0       0       0       0       0       0       0       0       0       0       0       0       
      +0       0       0       0       0
  1963 ;;      Totals:         1       0       0       0       0       0       0       0       0       0       0       0       
      +0       0       0       0       0
  1964 ;;Total ram usage:        1 bytes
  1965 ;; Hardware stack levels used: 1
  1966 ;; This function calls:
  1967 ;;		Nothing
  1968 ;; This function is called by:
  1969 ;;		_InterruptManager
  1970 ;; This function uses a non-reentrant model
  1971 ;;
  1972                           
  1973                           	psect	text12
  1974   00173E                     __ptext12:
  1975                           	callstack 0
  1976   00173E                     _RB6_ISR:
  1977                           	callstack 26
  1978   00173E                     
  1979                           ;C:/Users/Om562/MPLABXProjects/PIC18/MCAL_Layer/Interrupt/mcal_external_interrupt.c: 82:
      +                           void RB6_ISR(uint8_t src);C:/Users/Om562/MPLABXProjects/PIC18/MCAL_Layer/Interrupt/mcal
      +                          _external_interrupt.c: 83: {;C:/Users/Om562/MPLABXProjects/PIC18/MCAL_Layer/Interrupt/mc
      +                          al_external_interrupt.c: 84:  (INTCONbits.RBIF = 0);
  1980   00173E  90F2               	bcf	242,0,c	;volatile
  1981   001740  0012               	return		;funcret
  1982   001742                     __end_of_RB6_ISR:
  1983                           	callstack 0
  1984                           
  1985 ;; *************** function _RB5_ISR *****************
  1986 ;; Defined at:
  1987 ;;		line 71 in file "C:/Users/Om562/MPLABXProjects/PIC18/MCAL_Layer/Interrupt/mcal_external_interrupt.c"
  1988 ;; Parameters:    Size  Location     Type
  1989 ;;  src             1    wreg     unsigned char 
  1990 ;; Auto vars:     Size  Location     Type
  1991 ;;  src             1    0[COMRAM] unsigned char 
  1992 ;; Return value:  Size  Location     Type
  1993 ;;                  1    wreg      void 
  1994 ;; Registers used:
  1995 ;;		wreg
  1996 ;; Tracked objects:
  1997 ;;		On entry : 0/0
  1998 ;;		On exit  : 0/0
  1999 ;;		Unchanged: 0/0
  2000 ;; Data sizes:     COMRAM   BANK0   BANK1   BANK2   BANK3   BANK4   BANK5   BANK6   BANK7   BANK8   BANK9  BANK10  BANK1
      +1  BANK12  BANK13  BANK14  BANK15
  2001 ;;      Params:         0       0       0       0       0       0       0       0       0       0       0       0       
      +0       0       0       0       0
  2002 ;;      Locals:         1       0       0       0       0       0       0       0       0       0       0       0       
      +0       0       0       0       0
  2003 ;;      Temps:          0       0       0       0       0       0       0       0       0       0       0       0       
      +0       0       0       0       0
  2004 ;;      Totals:         1       0       0       0       0       0       0       0       0       0       0       0       
      +0       0       0       0       0
  2005 ;;Total ram usage:        1 bytes
  2006 ;; Hardware stack levels used: 1
  2007 ;; This function calls:
  2008 ;;		Nothing
  2009 ;; This function is called by:
  2010 ;;		_InterruptManager
  2011 ;; This function uses a non-reentrant model
  2012 ;;
  2013                           
  2014                           	psect	text13
  2015   001742                     __ptext13:
  2016                           	callstack 0
  2017   001742                     _RB5_ISR:
  2018                           	callstack 26
  2019   001742                     
  2020                           ;C:/Users/Om562/MPLABXProjects/PIC18/MCAL_Layer/Interrupt/mcal_external_interrupt.c: 71:
      +                           void RB5_ISR(uint8_t src);C:/Users/Om562/MPLABXProjects/PIC18/MCAL_Layer/Interrupt/mcal
      +                          _external_interrupt.c: 72: {;C:/Users/Om562/MPLABXProjects/PIC18/MCAL_Layer/Interrupt/mc
      +                          al_external_interrupt.c: 73:  (INTCONbits.RBIF = 0);
  2021   001742  90F2               	bcf	242,0,c	;volatile
  2022   001744  0012               	return		;funcret
  2023   001746                     __end_of_RB5_ISR:
  2024                           	callstack 0
  2025                           
  2026 ;; *************** function _RB4_ISR *****************
  2027 ;; Defined at:
  2028 ;;		line 60 in file "C:/Users/Om562/MPLABXProjects/PIC18/MCAL_Layer/Interrupt/mcal_external_interrupt.c"
  2029 ;; Parameters:    Size  Location     Type
  2030 ;;  src             1    wreg     unsigned char 
  2031 ;; Auto vars:     Size  Location     Type
  2032 ;;  src             1    0[COMRAM] unsigned char 
  2033 ;; Return value:  Size  Location     Type
  2034 ;;                  1    wreg      void 
  2035 ;; Registers used:
  2036 ;;		wreg
  2037 ;; Tracked objects:
  2038 ;;		On entry : 0/0
  2039 ;;		On exit  : 0/0
  2040 ;;		Unchanged: 0/0
  2041 ;; Data sizes:     COMRAM   BANK0   BANK1   BANK2   BANK3   BANK4   BANK5   BANK6   BANK7   BANK8   BANK9  BANK10  BANK1
      +1  BANK12  BANK13  BANK14  BANK15
  2042 ;;      Params:         0       0       0       0       0       0       0       0       0       0       0       0       
      +0       0       0       0       0
  2043 ;;      Locals:         1       0       0       0       0       0       0       0       0       0       0       0       
      +0       0       0       0       0
  2044 ;;      Temps:          0       0       0       0       0       0       0       0       0       0       0       0       
      +0       0       0       0       0
  2045 ;;      Totals:         1       0       0       0       0       0       0       0       0       0       0       0       
      +0       0       0       0       0
  2046 ;;Total ram usage:        1 bytes
  2047 ;; Hardware stack levels used: 1
  2048 ;; This function calls:
  2049 ;;		Nothing
  2050 ;; This function is called by:
  2051 ;;		_InterruptManager
  2052 ;; This function uses a non-reentrant model
  2053 ;;
  2054                           
  2055                           	psect	text14
  2056   001746                     __ptext14:
  2057                           	callstack 0
  2058   001746                     _RB4_ISR:
  2059                           	callstack 26
  2060   001746                     
  2061                           ;C:/Users/Om562/MPLABXProjects/PIC18/MCAL_Layer/Interrupt/mcal_external_interrupt.c: 60:
      +                           void RB4_ISR(uint8_t src);C:/Users/Om562/MPLABXProjects/PIC18/MCAL_Layer/Interrupt/mcal
      +                          _external_interrupt.c: 61: {;C:/Users/Om562/MPLABXProjects/PIC18/MCAL_Layer/Interrupt/mc
      +                          al_external_interrupt.c: 62:  (INTCONbits.RBIF = 0);
  2062   001746  90F2               	bcf	242,0,c	;volatile
  2063   001748  0012               	return		;funcret
  2064   00174A                     __end_of_RB4_ISR:
  2065                           	callstack 0
  2066                           
  2067 ;; *************** function _INT2_ISR *****************
  2068 ;; Defined at:
  2069 ;;		line 50 in file "C:/Users/Om562/MPLABXProjects/PIC18/MCAL_Layer/Interrupt/mcal_external_interrupt.c"
  2070 ;; Parameters:    Size  Location     Type
  2071 ;;		None
  2072 ;; Auto vars:     Size  Location     Type
  2073 ;;		None
  2074 ;; Return value:  Size  Location     Type
  2075 ;;                  1    wreg      void 
  2076 ;; Registers used:
  2077 ;;		None
  2078 ;; Tracked objects:
  2079 ;;		On entry : 0/0
  2080 ;;		On exit  : 0/0
  2081 ;;		Unchanged: 0/0
  2082 ;; Data sizes:     COMRAM   BANK0   BANK1   BANK2   BANK3   BANK4   BANK5   BANK6   BANK7   BANK8   BANK9  BANK10  BANK1
      +1  BANK12  BANK13  BANK14  BANK15
  2083 ;;      Params:         0       0       0       0       0       0       0       0       0       0       0       0       
      +0       0       0       0       0
  2084 ;;      Locals:         0       0       0       0       0       0       0       0       0       0       0       0       
      +0       0       0       0       0
  2085 ;;      Temps:          0       0       0       0       0       0       0       0       0       0       0       0       
      +0       0       0       0       0
  2086 ;;      Totals:         0       0       0       0       0       0       0       0       0       0       0       0       
      +0       0       0       0       0
  2087 ;;Total ram usage:        0 bytes
  2088 ;; Hardware stack levels used: 1
  2089 ;; This function calls:
  2090 ;;		Nothing
  2091 ;; This function is called by:
  2092 ;;		_InterruptManager
  2093 ;; This function uses a non-reentrant model
  2094 ;;
  2095                           
  2096                           	psect	text15
  2097   00174A                     __ptext15:
  2098                           	callstack 0
  2099   00174A                     _INT2_ISR:
  2100                           	callstack 26
  2101   00174A                     
  2102                           ;C:/Users/Om562/MPLABXProjects/PIC18/MCAL_Layer/Interrupt/mcal_external_interrupt.c: 53:
      +                            (INTCON3bits.INT2F = 0);
  2103   00174A  92F0               	bcf	240,1,c	;volatile
  2104   00174C  0012               	return		;funcret
  2105   00174E                     __end_of_INT2_ISR:
  2106                           	callstack 0
  2107                           
  2108 ;; *************** function _INT1_ISR *****************
  2109 ;; Defined at:
  2110 ;;		line 40 in file "C:/Users/Om562/MPLABXProjects/PIC18/MCAL_Layer/Interrupt/mcal_external_interrupt.c"
  2111 ;; Parameters:    Size  Location     Type
  2112 ;;		None
  2113 ;; Auto vars:     Size  Location     Type
  2114 ;;		None
  2115 ;; Return value:  Size  Location     Type
  2116 ;;                  1    wreg      void 
  2117 ;; Registers used:
  2118 ;;		None
  2119 ;; Tracked objects:
  2120 ;;		On entry : 0/0
  2121 ;;		On exit  : 0/0
  2122 ;;		Unchanged: 0/0
  2123 ;; Data sizes:     COMRAM   BANK0   BANK1   BANK2   BANK3   BANK4   BANK5   BANK6   BANK7   BANK8   BANK9  BANK10  BANK1
      +1  BANK12  BANK13  BANK14  BANK15
  2124 ;;      Params:         0       0       0       0       0       0       0       0       0       0       0       0       
      +0       0       0       0       0
  2125 ;;      Locals:         0       0       0       0       0       0       0       0       0       0       0       0       
      +0       0       0       0       0
  2126 ;;      Temps:          0       0       0       0       0       0       0       0       0       0       0       0       
      +0       0       0       0       0
  2127 ;;      Totals:         0       0       0       0       0       0       0       0       0       0       0       0       
      +0       0       0       0       0
  2128 ;;Total ram usage:        0 bytes
  2129 ;; Hardware stack levels used: 1
  2130 ;; This function calls:
  2131 ;;		Nothing
  2132 ;; This function is called by:
  2133 ;;		_InterruptManager
  2134 ;; This function uses a non-reentrant model
  2135 ;;
  2136                           
  2137                           	psect	text16
  2138   00174E                     __ptext16:
  2139                           	callstack 0
  2140   00174E                     _INT1_ISR:
  2141                           	callstack 26
  2142   00174E                     
  2143                           ;C:/Users/Om562/MPLABXProjects/PIC18/MCAL_Layer/Interrupt/mcal_external_interrupt.c: 43:
      +                            (INTCON3bits.INT1F = 0);
  2144   00174E  90F0               	bcf	240,0,c	;volatile
  2145   001750  0012               	return		;funcret
  2146   001752                     __end_of_INT1_ISR:
  2147                           	callstack 0
  2148                           
  2149 ;; *************** function _INT0_ISR *****************
  2150 ;; Defined at:
  2151 ;;		line 31 in file "C:/Users/Om562/MPLABXProjects/PIC18/MCAL_Layer/Interrupt/mcal_external_interrupt.c"
  2152 ;; Parameters:    Size  Location     Type
  2153 ;;		None
  2154 ;; Auto vars:     Size  Location     Type
  2155 ;;		None
  2156 ;; Return value:  Size  Location     Type
  2157 ;;                  1    wreg      void 
  2158 ;; Registers used:
  2159 ;;		None
  2160 ;; Tracked objects:
  2161 ;;		On entry : 0/0
  2162 ;;		On exit  : 0/0
  2163 ;;		Unchanged: 0/0
  2164 ;; Data sizes:     COMRAM   BANK0   BANK1   BANK2   BANK3   BANK4   BANK5   BANK6   BANK7   BANK8   BANK9  BANK10  BANK1
      +1  BANK12  BANK13  BANK14  BANK15
  2165 ;;      Params:         0       0       0       0       0       0       0       0       0       0       0       0       
      +0       0       0       0       0
  2166 ;;      Locals:         0       0       0       0       0       0       0       0       0       0       0       0       
      +0       0       0       0       0
  2167 ;;      Temps:          0       0       0       0       0       0       0       0       0       0       0       0       
      +0       0       0       0       0
  2168 ;;      Totals:         0       0       0       0       0       0       0       0       0       0       0       0       
      +0       0       0       0       0
  2169 ;;Total ram usage:        0 bytes
  2170 ;; Hardware stack levels used: 1
  2171 ;; This function calls:
  2172 ;;		Nothing
  2173 ;; This function is called by:
  2174 ;;		_InterruptManager
  2175 ;; This function uses a non-reentrant model
  2176 ;;
  2177                           
  2178                           	psect	text17
  2179   001752                     __ptext17:
  2180                           	callstack 0
  2181   001752                     _INT0_ISR:
  2182                           	callstack 26
  2183   001752                     
  2184                           ;C:/Users/Om562/MPLABXProjects/PIC18/MCAL_Layer/Interrupt/mcal_external_interrupt.c: 34:
      +                            (INTCONbits.INT0IF = 0);
  2185   001752  92F2               	bcf	242,1,c	;volatile
  2186   001754  0012               	return		;funcret
  2187   001756                     __end_of_INT0_ISR:
  2188                           	callstack 0
  2189                           
  2190 ;; *************** function _ADC_ISR *****************
  2191 ;; Defined at:
  2192 ;;		line 228 in file "MCAL_Layer/ADC/hal_adc.c"
  2193 ;; Parameters:    Size  Location     Type
  2194 ;;		None
  2195 ;; Auto vars:     Size  Location     Type
  2196 ;;		None
  2197 ;; Return value:  Size  Location     Type
  2198 ;;                  1    wreg      void 
  2199 ;; Registers used:
  2200 ;;		None
  2201 ;; Tracked objects:
  2202 ;;		On entry : 0/0
  2203 ;;		On exit  : 0/0
  2204 ;;		Unchanged: 0/0
  2205 ;; Data sizes:     COMRAM   BANK0   BANK1   BANK2   BANK3   BANK4   BANK5   BANK6   BANK7   BANK8   BANK9  BANK10  BANK1
      +1  BANK12  BANK13  BANK14  BANK15
  2206 ;;      Params:         0       0       0       0       0       0       0       0       0       0       0       0       
      +0       0       0       0       0
  2207 ;;      Locals:         0       0       0       0       0       0       0       0       0       0       0       0       
      +0       0       0       0       0
  2208 ;;      Temps:          0       0       0       0       0       0       0       0       0       0       0       0       
      +0       0       0       0       0
  2209 ;;      Totals:         0       0       0       0       0       0       0       0       0       0       0       0       
      +0       0       0       0       0
  2210 ;;Total ram usage:        0 bytes
  2211 ;; Hardware stack levels used: 1
  2212 ;; This function calls:
  2213 ;;		Nothing
  2214 ;; This function is called by:
  2215 ;;		_InterruptManager
  2216 ;; This function uses a non-reentrant model
  2217 ;;
  2218                           
  2219                           	psect	text18
  2220   001756                     __ptext18:
  2221                           	callstack 0
  2222   001756                     _ADC_ISR:
  2223                           	callstack 26
  2224   001756                     
  2225                           ;MCAL_Layer/ADC/hal_adc.c: 230:  (PIR1bits.ADIF = 0);
  2226   001756  9C9E               	bcf	158,6,c	;volatile
  2227   001758  0012               	return		;funcret
  2228   00175A                     __end_of_ADC_ISR:
  2229                           	callstack 0
  2230                           
  2231                           	psect	text19
  2232   000000                     __ptext19:
  2233                           	callstack 0
  2234   000000                     
  2235                           	psect	rparam
  2236   000000                     
  2237                           	psect	temp
  2238   000063                     btemp:
  2239                           	callstack 0
  2240   000063                     	ds	1
  2241   000000                     int$flags	set	btemp
  2242   000000                     wtemp8	set	btemp+1
  2243   000000                     ttemp5	set	btemp+1
  2244   000000                     ttemp6	set	btemp+4
  2245   000000                     ttemp7	set	btemp+8
  2246                           
  2247                           	psect	config
  2248                           
  2249                           ; Padding undefined space
  2250   300000                     	org	3145728
  2251   300000  FF                 	db	255
  2252                           
  2253                           ;Config register CONFIG1H @ 0x300001
  2254                           ;	Oscillator Selection bits
  2255                           ;	OSC = HS, HS oscillator
  2256                           ;	Fail-Safe Clock Monitor Enable bit
  2257                           ;	FCMEN = OFF, Fail-Safe Clock Monitor disabled
  2258                           ;	Internal/External Oscillator Switchover bit
  2259                           ;	IESO = OFF, Oscillator Switchover mode disabled
  2260   300001                     	org	3145729
  2261   300001  02                 	db	2
  2262                           
  2263                           ;Config register CONFIG2L @ 0x300002
  2264                           ;	Power-up Timer Enable bit
  2265                           ;	PWRT = OFF, PWRT disabled
  2266                           ;	Brown-out Reset Enable bits
  2267                           ;	BOREN = OFF, Brown-out Reset disabled in hardware and software
  2268                           ;	Brown Out Reset Voltage bits
  2269                           ;	BORV = 1, 
  2270   300002                     	org	3145730
  2271   300002  09                 	db	9
  2272                           
  2273                           ;Config register CONFIG2H @ 0x300003
  2274                           ;	Watchdog Timer Enable bit
  2275                           ;	WDT = ON, WDT enabled
  2276                           ;	Watchdog Timer Postscale Select bits
  2277                           ;	WDTPS = 32768, 1:32768
  2278   300003                     	org	3145731
  2279   300003  1F                 	db	31
  2280                           
  2281                           ; Padding undefined space
  2282   300004                     	org	3145732
  2283   300004  FF                 	db	255
  2284                           
  2285                           ;Config register CONFIG3H @ 0x300005
  2286                           ;	CCP2 MUX bit
  2287                           ;	CCP2MX = PORTC, CCP2 input/output is multiplexed with RC1
  2288                           ;	PORTB A/D Enable bit
  2289                           ;	PBADEN = OFF, PORTB<4:0> pins are configured as digital I/O on Reset
  2290                           ;	Low-Power Timer1 Oscillator Enable bit
  2291                           ;	LPT1OSC = OFF, Timer1 configured for higher power operation
  2292                           ;	MCLR Pin Enable bit
  2293                           ;	MCLRE = ON, MCLR pin enabled; RE3 input pin disabled
  2294   300005                     	org	3145733
  2295   300005  81                 	db	129
  2296                           
  2297                           ;Config register CONFIG4L @ 0x300006
  2298                           ;	Stack Full/Underflow Reset Enable bit
  2299                           ;	STVREN = ON, Stack full/underflow will cause Reset
  2300                           ;	Single-Supply ICSP Enable bit
  2301                           ;	LVP = OFF, Single-Supply ICSP disabled
  2302                           ;	Extended Instruction Set Enable bit
  2303                           ;	XINST = OFF, Instruction set extension and Indexed Addressing mode disabled (Legacy mo
      +                          de)
  2304                           ;	Background Debugger Enable bit
  2305                           ;	DEBUG = 0x1, unprogrammed default
  2306   300006                     	org	3145734
  2307   300006  81                 	db	129
  2308                           
  2309                           ; Padding undefined space
  2310   300007                     	org	3145735
  2311   300007  FF                 	db	255
  2312                           
  2313                           ;Config register CONFIG5L @ 0x300008
  2314                           ;	Code Protection bit
  2315                           ;	CP0 = OFF, Block 0 (000800-003FFFh) not code-protected
  2316                           ;	Code Protection bit
  2317                           ;	CP1 = OFF, Block 1 (004000-007FFFh) not code-protected
  2318                           ;	Code Protection bit
  2319                           ;	CP2 = OFF, Block 2 (008000-00BFFFh) not code-protected
  2320                           ;	Code Protection bit
  2321                           ;	CP3 = OFF, Block 3 (00C000-00FFFFh) not code-protected
  2322   300008                     	org	3145736
  2323   300008  0F                 	db	15
  2324                           
  2325                           ;Config register CONFIG5H @ 0x300009
  2326                           ;	Boot Block Code Protection bit
  2327                           ;	CPB = OFF, Boot block (000000-0007FFh) not code-protected
  2328                           ;	Data EEPROM Code Protection bit
  2329                           ;	CPD = OFF, Data EEPROM not code-protected
  2330   300009                     	org	3145737
  2331   300009  C0                 	db	192
  2332                           
  2333                           ;Config register CONFIG6L @ 0x30000A
  2334                           ;	Write Protection bit
  2335                           ;	WRT0 = OFF, Block 0 (000800-003FFFh) not write-protected
  2336                           ;	Write Protection bit
  2337                           ;	WRT1 = OFF, Block 1 (004000-007FFFh) not write-protected
  2338                           ;	Write Protection bit
  2339                           ;	WRT2 = OFF, Block 2 (008000-00BFFFh) not write-protected
  2340                           ;	Write Protection bit
  2341                           ;	WRT3 = OFF, Block 3 (00C000-00FFFFh) not write-protected
  2342   30000A                     	org	3145738
  2343   30000A  0F                 	db	15
  2344                           
  2345                           ;Config register CONFIG6H @ 0x30000B
  2346                           ;	Configuration Register Write Protection bit
  2347                           ;	WRTC = OFF, Configuration registers (300000-3000FFh) not write-protected
  2348                           ;	Boot Block Write Protection bit
  2349                           ;	WRTB = OFF, Boot Block (000000-0007FFh) not write-protected
  2350                           ;	Data EEPROM Write Protection bit
  2351                           ;	WRTD = OFF, Data EEPROM not write-protected
  2352   30000B                     	org	3145739
  2353   30000B  E0                 	db	224
  2354                           
  2355                           ;Config register CONFIG7L @ 0x30000C
  2356                           ;	Table Read Protection bit
  2357                           ;	EBTR0 = OFF, Block 0 (000800-003FFFh) not protected from table reads executed in other
      +                           blocks
  2358                           ;	Table Read Protection bit
  2359                           ;	EBTR1 = OFF, Block 1 (004000-007FFFh) not protected from table reads executed in other
      +                           blocks
  2360                           ;	Table Read Protection bit
  2361                           ;	EBTR2 = OFF, Block 2 (008000-00BFFFh) not protected from table reads executed in other
      +                           blocks
  2362                           ;	Table Read Protection bit
  2363                           ;	EBTR3 = OFF, Block 3 (00C000-00FFFFh) not protected from table reads executed in other
      +                           blocks
  2364   30000C                     	org	3145740
  2365   30000C  0F                 	db	15
  2366                           
  2367                           ;Config register CONFIG7H @ 0x30000D
  2368                           ;	Boot Block Table Read Protection bit
  2369                           ;	EBTRB = OFF, Boot Block (000000-0007FFh) not protected from table reads executed in ot
      +                          her blocks
  2370   30000D                     	org	3145741
  2371   30000D  40                 	db	64
  2372                           tosu	equ	0xFFF
  2373                           tosh	equ	0xFFE
  2374                           tosl	equ	0xFFD
  2375                           stkptr	equ	0xFFC
  2376                           pclatu	equ	0xFFB
  2377                           pclath	equ	0xFFA
  2378                           pcl	equ	0xFF9
  2379                           tblptru	equ	0xFF8
  2380                           tblptrh	equ	0xFF7
  2381                           tblptrl	equ	0xFF6
  2382                           tablat	equ	0xFF5
  2383                           prodh	equ	0xFF4
  2384                           prodl	equ	0xFF3
  2385                           indf0	equ	0xFEF
  2386                           postinc0	equ	0xFEE
  2387                           postdec0	equ	0xFED
  2388                           preinc0	equ	0xFEC
  2389                           plusw0	equ	0xFEB
  2390                           fsr0h	equ	0xFEA
  2391                           fsr0l	equ	0xFE9
  2392                           wreg	equ	0xFE8
  2393                           indf1	equ	0xFE7
  2394                           postinc1	equ	0xFE6
  2395                           postdec1	equ	0xFE5
  2396                           preinc1	equ	0xFE4
  2397                           plusw1	equ	0xFE3
  2398                           fsr1h	equ	0xFE2
  2399                           fsr1l	equ	0xFE1
  2400                           bsr	equ	0xFE0
  2401                           indf2	equ	0xFDF
  2402                           postinc2	equ	0xFDE
  2403                           postdec2	equ	0xFDD
  2404                           preinc2	equ	0xFDC
  2405                           plusw2	equ	0xFDB
  2406                           fsr2h	equ	0xFDA
  2407                           fsr2l	equ	0xFD9
  2408                           status	equ	0xFD8

Data Sizes:
    Strings     3
    Constant    0
    Data        35
    BSS         42
    Persistent  0
    Stack       0

Auto Spaces:
    Space          Size  Autos    Used
    COMRAM          126     21      98
    BANK0           128      0       0
    BANK1           256      0       0
    BANK2           256      0       0
    BANK3           256      0       0
    BANK4           256      0       0
    BANK5           256      0       0
    BANK6           256      0       0
    BANK7           256      0       0
    BANK8           256      0       0
    BANK9           256      0       0
    BANK10          256      0       0
    BANK11          256      0       0
    BANK12          256      0       0
    BANK13          256      0       0
    BANK14          256      0       0
    BANK15          128      0       0

Pointer List with Targets:

    ADC_CALLBACK	PTR FTN()void  size(2) Largest target is 1
		 -> NULL(), 

    ADC_CHANNEL_PIN_CONFIGURE@obj$ADC_CallBack	PTR FTN()void  size(2) Largest target is 0

    ADC_GetConversionRes@obj$ADC_CallBack	PTR FTN()void  size(2) Largest target is 0

    ADC_INIT@obj$ADC_CallBack	PTR FTN()void  size(2) Largest target is 0

    ADC_RESULT_ADJUST@obj$ADC_CallBack	PTR FTN()void  size(2) Largest target is 0

    ADC_SelectChannnel@obj$ADC_CallBack	PTR FTN()void  size(2) Largest target is 0

    ADC_VOLTAGE_REFRECE_CONFIGURE@obj$ADC_CallBack	PTR FTN()void  size(2) Largest target is 0

    f$.$buffer	PTR unsigned char  size(2) Largest target is 0

    f$.$source	PTR const unsigned char  size(2) Largest target is 0

    gpio_pin_direction_initialize@pin_config	PTR const struct . size(1) Largest target is 1
		 -> led_init@pin_obj(COMRAM[1]), relayInit@pinObj(COMRAM[1]), 

    gpio_pin_initialize@pin_config	PTR const struct . size(1) Largest target is 1
		 -> led_init@pin_obj(COMRAM[1]), relayInit@pinObj(COMRAM[1]), 

    gpio_pin_write_logic@pin_config	PTR struct . size(1) Largest target is 1
		 -> led_init@pin_obj(COMRAM[1]), led_off@pin_obj(COMRAM[1]), led_on@pin_obj(COMRAM[1]), relayInit@pinObj(COMRAM[1]), 
		 -> relayOFF@pinObj(COMRAM[1]), relayON@pinObj(COMRAM[1]), 

    INT0_CALBACK	PTR FTN()void  size(2) Largest target is 1
		 -> NULL(), 

    INT1_CALBACK	PTR FTN()void  size(2) Largest target is 1
		 -> NULL(), 

    INT2_CALBACK	PTR FTN()void  size(2) Largest target is 1
		 -> NULL(), 

    interrupt_INTx_CallBack_Init@obj$callback_function	PTR FTN()void  size(2) Largest target is 0

    interrupt_INTx_Clear_Flag@obj$callback_function	PTR FTN()void  size(2) Largest target is 0

    interrupt_INTx_Disable@obj$callback_function	PTR FTN()void  size(2) Largest target is 0

    interrupt_INTx_Edge_Init@obj$callback_function	PTR FTN()void  size(2) Largest target is 0

    interrupt_INTx_Enable@obj$callback_function	PTR FTN()void  size(2) Largest target is 0

    interrupt_INTx_Pin_Init@obj$callback_function	PTR FTN()void  size(2) Largest target is 0

    Interrupt_RBx_Init@obj$callback_function_HIGH	PTR FTN()void  size(2) Largest target is 0

    Interrupt_RBx_Init@obj$callback_function_LOW	PTR FTN()void  size(2) Largest target is 0

    keypadInit@pad$keypadMatrix	PTR unsigned char [6][4] size(2) Largest target is 0

    keypadReadValue@pad$keypadMatrix	PTR unsigned char [6][4] size(2) Largest target is 0

    lat_regs	PTR volatile unsigned char [5] size(2) Largest target is 1
		 -> LATA(BITBIGSFRlllll[1]), LATB(BITBIGSFRllllh[1]), LATC(BITBIGSFRllllh[1]), LATD(BITBIGSFRllllh[1]), 
		 -> LATE(BITBIGSFRllllh[1]), 

    led_init@led	PTR const struct . size(1) Largest target is 1
		 -> led1(COMRAM[1]), 

    modeSelect@obj$TIMR0_CallBack	PTR FTN()void  size(2) Largest target is 0

    ModeSelect@obj$TMR1_CallBackFun	PTR FTN()void  size(2) Largest target is 0

    OscSelect@obj$TMR1_CallBackFun	PTR FTN()void  size(2) Largest target is 0

    port_regs	PTR volatile unsigned char [5] size(2) Largest target is 1
		 -> PORTA(BITBIGSFRlllll[1]), PORTB(BITBIGSFRlllll[1]), PORTC(BITBIGSFRlllll[1]), PORTD(BITBIGSFRlllll[1]), 
		 -> PORTE(BITBIGSFRlllll[1]), 

    preScalerConfig@obj$TIMR0_CallBack	PTR FTN()void  size(2) Largest target is 0

    RB4_CallBack_HIGH	PTR FTN()void  size(2) Largest target is 1
		 -> NULL(), 

    RB4_CallBack_LOW	PTR FTN()void  size(2) Largest target is 1
		 -> NULL(), 

    RB5_CallBack_HIGH	PTR FTN()void  size(2) Largest target is 1
		 -> NULL(), 

    RB5_CallBack_LOW	PTR FTN()void  size(2) Largest target is 1
		 -> NULL(), 

    RB6_CallBack_HIGH	PTR FTN()void  size(2) Largest target is 1
		 -> NULL(), 

    RB6_CallBack_LOW	PTR FTN()void  size(2) Largest target is 1
		 -> NULL(), 

    RB7_CallBack_HIGH	PTR FTN()void  size(2) Largest target is 1
		 -> NULL(), 

    RB7_CallBack_LOW	PTR FTN()void  size(2) Largest target is 1
		 -> NULL(), 

    RegSelect@obj$TMR1_CallBackFun	PTR FTN()void  size(2) Largest target is 0

    regSelectSize@obj$TIMR0_CallBack	PTR FTN()void  size(2) Largest target is 0

    S1393$callback_function	PTR FTN()void  size(2) Largest target is 0

    S1431$callback_function_HIGH	PTR FTN()void  size(2) Largest target is 0

    S1431$callback_function_LOW	PTR FTN()void  size(2) Largest target is 0

    S151$keypadMatrix	PTR unsigned char [6][4] size(2) Largest target is 0

    S1881$TIMR0_CallBack	PTR FTN()void  size(2) Largest target is 0

    S2041$TMR1_CallBackFun	PTR FTN()void  size(2) Largest target is 0

    S2286$tmr2CallBack	PTR FTN()void  size(2) Largest target is 1
		 -> fun(), 

    S2892$buffer	PTR unsigned char  size(2) Largest target is 0

    S2892$source	PTR const unsigned char  size(2) Largest target is 0

    S688$ADC_CallBack	PTR FTN()void  size(2) Largest target is 0

    sp__memset	PTR void  size(2) Largest target is 0

    timer0_Init@obj$TIMR0_CallBack	PTR FTN()void  size(2) Largest target is 0

    Timer1_Init@obj$TMR1_CallBackFun	PTR FTN()void  size(2) Largest target is 0

    Timer1_Read_Value@obj$TMR1_CallBackFun	PTR FTN()void  size(2) Largest target is 0

    Timer1_Write_Value@obj$TMR1_CallBackFun	PTR FTN()void  size(2) Largest target is 0

    Timer2_Init@obj	PTR const struct . size(1) Largest target is 5
		 -> main@timer2_obj(COMRAM[5]), 

    Timer2_Init@obj$tmr2CallBack	PTR FTN()void  size(2) Largest target is 1
		 -> fun(), 

    timer2_interrupt_handler	PTR FTN()void  size(2) Largest target is 1
		 -> fun(), NULL(), 

    timer2_obj$tmr2CallBack	PTR FTN()void  size(2) Largest target is 1
		 -> fun(), 

    timerInterrupthandler	PTR FTN()void  size(2) Largest target is 1
		 -> NULL(), 

    TMR1InterruptHandler	PTR FTN()void  size(2) Largest target is 1
		 -> NULL(), 

    tris_regs	PTR volatile unsigned char [5] size(2) Largest target is 1
		 -> TRISA(BITBIGSFRlllll[1]), TRISB(ABS[1]), TRISC(ABS[1]), TRISD(ABS[1]), 
		 -> TRISE(ABS[1]), 

    vfprintf$0	PTR struct _IO_FILE size(1) Largest target is 12
		 -> sprintf@f(COMRAM[12]), 

    vfprintf$1	PTR const unsigned char  size(1) Largest target is 3
		 -> STR_1(CODE[3]), STR_2(CODE[3]), STR_3(CODE[3]), 

    vfprintf$2	PTR PTR void  size(1) Largest target is 1
		 -> sprintf@ap(COMRAM[1]), 


Critical Paths under _main in COMRAM

    _main->_led_init
    _led_init->_gpio_pin_initialize
    _gpio_pin_initialize->_gpio_pin_write_logic

Critical Paths under _InterruptManager in COMRAM

    _InterruptManager->_RB4_ISR
    _InterruptManager->_RB5_ISR
    _InterruptManager->_RB6_ISR
    _InterruptManager->_RB7_ISR

Critical Paths under _main in BANK0

    None.

Critical Paths under _InterruptManager in BANK0

    None.

Critical Paths under _main in BANK1

    None.

Critical Paths under _InterruptManager in BANK1

    None.

Critical Paths under _main in BANK2

    None.

Critical Paths under _InterruptManager in BANK2

    None.

Critical Paths under _main in BANK3

    None.

Critical Paths under _InterruptManager in BANK3

    None.

Critical Paths under _main in BANK4

    None.

Critical Paths under _InterruptManager in BANK4

    None.

Critical Paths under _main in BANK5

    None.

Critical Paths under _InterruptManager in BANK5

    None.

Critical Paths under _main in BANK6

    None.

Critical Paths under _InterruptManager in BANK6

    None.

Critical Paths under _main in BANK7

    None.

Critical Paths under _InterruptManager in BANK7

    None.

Critical Paths under _main in BANK8

    None.

Critical Paths under _InterruptManager in BANK8

    None.

Critical Paths under _main in BANK9

    None.

Critical Paths under _InterruptManager in BANK9

    None.

Critical Paths under _main in BANK10

    None.

Critical Paths under _InterruptManager in BANK10

    None.

Critical Paths under _main in BANK11

    None.

Critical Paths under _InterruptManager in BANK11

    None.

Critical Paths under _main in BANK12

    None.

Critical Paths under _InterruptManager in BANK12

    None.

Critical Paths under _main in BANK13

    None.

Critical Paths under _InterruptManager in BANK13

    None.

Critical Paths under _main in BANK14

    None.

Critical Paths under _InterruptManager in BANK14

    None.

Critical Paths under _main in BANK15

    None.

Critical Paths under _InterruptManager in BANK15

    None.

Call Graph Tables:

 ---------------------------------------------------------------------------------
 (Depth) Function   	        Calls       Base Space   Used Autos Params    Refs
 ---------------------------------------------------------------------------------
 (0) _main                                                 5     5      0    6588
                                             16 COMRAM     5     5      0
                        _Timer2_Init
                           _led_init
 ---------------------------------------------------------------------------------
 (1) _led_init                                             4     3      1    6274
                                             13 COMRAM     3     2      1
                _gpio_pin_initialize
 ---------------------------------------------------------------------------------
 (2) _gpio_pin_initialize                                  2     1      1    6062
                                             11 COMRAM     2     1      1
      _gpio_pin_direction_initialize
               _gpio_pin_write_logic
 ---------------------------------------------------------------------------------
 (3) _gpio_pin_write_logic                                 8     6      2    4501
                                              3 COMRAM     8     6      2
 ---------------------------------------------------------------------------------
 (3) _gpio_pin_direction_initialize                        7     6      1     385
                                              3 COMRAM     7     6      1
 ---------------------------------------------------------------------------------
 (1) _Timer2_Init                                          3     2      1     216
                                              3 COMRAM     2     1      1
 ---------------------------------------------------------------------------------
 Estimated maximum stack depth 3
 ---------------------------------------------------------------------------------
 (Depth) Function   	        Calls       Base Space   Used Autos Params    Refs
 ---------------------------------------------------------------------------------
 (4) _InterruptManager                                     2     2      0     120
                                              1 COMRAM     2     2      0
                            _ADC_ISR
                           _INT0_ISR
                           _INT1_ISR
                           _INT2_ISR
                            _RB4_ISR
                            _RB5_ISR
                            _RB6_ISR
                            _RB7_ISR
                           _TMR0_ISR
                           _TMR1_ISR
                           _TMR2_ISR
 ---------------------------------------------------------------------------------
 (5) _TMR2_ISR                                             0     0      0       0
                                NULL *
                                _fun *
 ---------------------------------------------------------------------------------
 (6) _fun                                                  0     0      0       0
 ---------------------------------------------------------------------------------
 (6) NULL(Fake)                                            0     0      0       0
 ---------------------------------------------------------------------------------
 (5) _TMR1_ISR                                             0     0      0       0
 ---------------------------------------------------------------------------------
 (5) _TMR0_ISR                                             0     0      0       0
 ---------------------------------------------------------------------------------
 (5) _RB7_ISR                                              1     1      0      30
                                              0 COMRAM     1     1      0
 ---------------------------------------------------------------------------------
 (5) _RB6_ISR                                              1     1      0      30
                                              0 COMRAM     1     1      0
 ---------------------------------------------------------------------------------
 (5) _RB5_ISR                                              1     1      0      30
                                              0 COMRAM     1     1      0
 ---------------------------------------------------------------------------------
 (5) _RB4_ISR                                              1     1      0      30
                                              0 COMRAM     1     1      0
 ---------------------------------------------------------------------------------
 (5) _INT2_ISR                                             0     0      0       0
 ---------------------------------------------------------------------------------
 (5) _INT1_ISR                                             0     0      0       0
 ---------------------------------------------------------------------------------
 (5) _INT0_ISR                                             0     0      0       0
 ---------------------------------------------------------------------------------
 (5) _ADC_ISR                                              0     0      0       0
 ---------------------------------------------------------------------------------
 Estimated maximum stack depth 6
 ---------------------------------------------------------------------------------

 Call Graph Graphs:

 _main (ROOT)
   _Timer2_Init
   _led_init
     _gpio_pin_initialize
       _gpio_pin_direction_initialize
       _gpio_pin_write_logic

 _InterruptManager (ROOT)
   _ADC_ISR
   _INT0_ISR
   _INT1_ISR
   _INT2_ISR
   _RB4_ISR
   _RB5_ISR
   _RB6_ISR
   _RB7_ISR
   _TMR0_ISR
   _TMR1_ISR
   _TMR2_ISR
     NULL(Fake) *
     _fun *

 Address spaces:
Name               Size   Autos  Total    Cost      Usage
BIGRAM             F7F      0       0      47        0.0%
EEDATA             400      0       0       0        0.0%
BITBANK14          100      0       0      33        0.0%
BANK14             100      0       0      34        0.0%
BITBANK13          100      0       0      31        0.0%
BANK13             100      0       0      32        0.0%
BITBANK12          100      0       0      29        0.0%
BANK12             100      0       0      30        0.0%
BITBANK11          100      0       0      27        0.0%
BANK11             100      0       0      28        0.0%
BITBANK10          100      0       0      25        0.0%
BANK10             100      0       0      26        0.0%
BITBANK9           100      0       0      23        0.0%
BANK9              100      0       0      24        0.0%
BITBANK8           100      0       0      21        0.0%
BANK8              100      0       0      22        0.0%
BITBANK7           100      0       0      18        0.0%
BANK7              100      0       0      19        0.0%
BITBANK6           100      0       0      16        0.0%
BANK6              100      0       0      17        0.0%
BITBANK5           100      0       0      14        0.0%
BANK5              100      0       0      15        0.0%
BITBANK4           100      0       0      12        0.0%
BANK4              100      0       0      13        0.0%
BITBANK3           100      0       0      10        0.0%
BANK3              100      0       0      11        0.0%
BITBANK2           100      0       0       8        0.0%
BANK2              100      0       0       9        0.0%
BITBANK1           100      0       0       6        0.0%
BANK1              100      0       0       7        0.0%
BITBANK15           80      0       0      35        0.0%
BANK15              80      0       0      36        0.0%
BITBANK0            80      0       0       4        0.0%
BANK0               80      0       0       5        0.0%
BITCOMRAM           7E      0       0       0        0.0%
COMRAM              7E     15      62       1       77.8%
BITBIGSFRhlhlh      18      0       0      38        0.0%
BITBIGSFRllhh       15      0       0      42        0.0%
BITBIGSFRhh          D      0       0      37        0.0%
BITBIGSFRllhll       7      0       0      43        0.0%
BITBIGSFRlllhh       6      0       0      44        0.0%
BITBIGSFRhlhllh      5      0       0      39        0.0%
BITBIGSFRhlhlll      5      0       0      41        0.0%
BITBIGSFRllllh       4      0       0      45        0.0%
BITBIGSFRlllll       4      0       0      46        0.0%
BITBIGSFRhlhlll      1      0       0      40        0.0%
BIGSFR               0      0       0     200        0.0%
BITSFR               0      0       0     200        0.0%
SFR                  0      0       0     200        0.0%
STACK                0      0       0       2        0.0%
NULL                 0      0       0       0        0.0%
ABS                  0      0      62      20        0.0%
DATA                 0      0      62       3        0.0%
CODE                 0      0       0       0        0.0%


Microchip Technology PIC18 Macro Assembler V2.45 build 20230818022343 
Symbol Table                                                                                   Tue Feb 06 22:17:12 2024

                     ??_InterruptManager 004F                                      l280 15CC  
                                    l522 1530                                      l284 1620  
                                    l551 165E                                      l539 142A  
                                    l980 16F0                                      l979 16F0  
          gpio_pin_initialize@pin_config 0059                                      _fun 1734  
                        __end_of_ADC_ISR 175A                                      tosl 0FFD  
                                    wreg 0FE8                              led_on@F3058 0029  
                        __end_of_RB4_ISR 174A                          __end_of_RB5_ISR 1746  
                        __end_of_RB6_ISR 1742                          __end_of_RB7_ISR 173E  
                           _ADC_CALLBACK 0021                                     l1003 1546  
                                   l1005 15B6                                     l3531 131C  
                                   l4331 16DC                                     l3541 13EA  
                                   l3533 1330                                     l4333 16E0  
                                   l4325 16C8                                     l3535 1338  
                                   l4335 16E8                                     l4327 16D0  
                                   l3561 1448                                     l4345 1412  
                                   l3537 138A                                     l4329 16D8  
                                   l4347 1518                                     l3563 149E  
                                   l3571 152E                                     l3539 139E  
                                   l3547 13FE                                     l3557 142C  
                                   l3549 1428                                     l3581 1636  
                                   l3559 1440                                     l3583 163E  
                                   l3569 14EE                                     l3585 165C  
                                   l3761 1606                                     l3771 1542  
                                   l3579 1622                                     l3763 1608  
                                   l3755 15B8                                     l3781 15B0  
                                   l3773 1548                                     l3765 1618  
                                   l3757 15C8                                     l3783 15B2  
                                   l3775 159E                                     l3759 15D0  
                                   ?_fun 004E                                     l3785 15B4  
                                   l3777 15A0                                     l3769 1532  
                                   l3779 15A2                                     STR_1 1001  
                                   u2220 1440                                     u2204 13BC  
                                   u2221 143C                                     u2205 13B8  
                                   _LATA 0F89                                     _LATB 0F8A  
                                   u2215 13F8                                     _LATC 0F8B  
                                   u2216 13FA                                     _LATD 0F8C  
                                   _LATE 0F8D                                     u2250 1504  
                                   u2234 1466                                     u2170 1330  
                                   u2251 14FE                                     u2235 1462  
                                   u2171 132C                                     u2260 1506  
                                   u2244 14BC                                     u2245 14B8  
                                   u2270 1636                                     u2271 1632  
                                   u2184 1356                                     u2185 1352  
                                   u2450 15C8                                     u2195 1398  
                                   u2451 15C4                                     u2196 139A  
                                   u2470 1542                                     u2471 153E  
                                   u2465 1616                                     u2467 1618  
                                   _TMR2 0FCC                                     _led1 004D  
                                   _main 16C8                                     fsr2h 0FDA  
                                   indf2 0FDF                                     fsr1l 0FE1  
                                   fsr2l 0FD9                                     btemp 0063  
                                   prodl 0FF3                                     start 000E  
                            led_init@led 005B                             ___param_bank 0000  
                   _gpio_pin_write_logic 131C                                    ??_fun 004E  
                       __end_of_INT0_ISR 1756                         __end_of_INT1_ISR 1752  
                       __end_of_INT2_ISR 174E                                    ?_main 004E  
                                  _EEADR 0FA9                             led_off@F3063 0028  
                                  i2l623 1754                                    i2l631 174C  
                                  i2l449 1758                                    i2l627 1750  
                                  i2l652 1740                                    i2l645 1744  
                                  i2l638 1748                                    i2l822 1310  
                                  i2l659 173C                                    i2l844 1732  
                                  i2l917 1726                                    i2l974 1738  
                                  _TMR0H 0FD7                                    _TMR1H 0FCF  
                                  _TMR0L 0FD6                                    _TMR1L 0FCE  
                                  _PORTA 0F80                                    _PORTB 0F81  
                                  _PORTC 0F82                                    _PORTD 0F83  
                                  _PORTE 0F84                                    _TRISA 0F92  
                                  _TRISB 0F93                                    _TRISC 0F94  
                                  _TRISD 0F95                                    _TRISE 0F96  
                       __end_of_TMR0_ISR 1734                         __end_of_TMR1_ISR 1728  
                       __end_of_TMR2_ISR 16C8                                    pclath 0FFA  
                                  pclatu 0FFB                                    tablat 0FF5  
                                  ttemp5 0064                                    ttemp6 0067  
                                  ttemp7 006B                                    status 0FD8  
                                  wtemp8 0064           ?_gpio_pin_direction_initialize 0051  
                        __initialization 1660                             __end_of_main 16F8  
                  ?_gpio_pin_write_logic 0051                                ??_ADC_ISR 004E  
                                 ??_main 005E                            __activetblptr 0003  
                              ??_RB4_ISR 004E                                ??_RB5_ISR 004E  
                              ??_RB6_ISR 004E                                ??_RB7_ISR 004E  
                      _RB6_CallBack_HIGH 0015                                   _ADRESH 0FC4  
                                 _EEADRH 0FAA                                   _ADRESL 0FC3  
                                 _EEDATA 0FA8                                   _EECON2 0FA7  
                                 i2l1000 16C6                                   i2l2001 1756  
                                 i2l2005 1752                                   i2l2013 174A  
                                 i2l2009 174E                                   i2l2017 1746  
                                 i2l2027 1742                                   i2l2037 173E  
                                 i2l2061 172E                                   i2l2047 173A  
                                 i2l2057 1728                                   i2l2065 171C  
                                 i2l2073 1696                                   i2l3201 1132  
                                 i2l2059 172A                                   i2l2067 171E  
                                 i2l2075 169C                                   i2l3211 1166  
                                 i2l3203 1136                                   i2l2069 1722  
                                 i2l2077 16AE                                   i2l3221 119C  
                                 i2l3213 1176                                   i2l3205 113C  
                                 i2l3231 11D2                                   i2l3223 11AA  
                                 i2l3215 117A                                   i2l3207 114A  
                                 i2l3151 1010                                   i2l3233 11E0  
                                 i2l3241 1208                                   i2l3225 11BA  
                                 i2l3209 1158                                   i2l3217 1180  
                                 i2l3161 104C                                   i2l3153 101E  
                                 i2l3251 1246                                   i2l3243 1216  
                                 i2l3235 11EE                                   i2l3227 11BE  
                                 i2l3219 118E                                   i2l3171 107E  
                                 i2l3163 1050                                   i2l3155 102C  
                                 i2l3261 1286                                   i2l3245 1224  
                                 i2l3253 124C                                   i2l3237 11FE  
                                 i2l3229 11C4                                   i2l3173 108C  
                                 i2l3181 10B4                                   i2l3165 105E  
                                 i2l3157 1030                                   i2l3271 12B0  
                                 i2l3263 128A                                   i2l3255 125A  
                                 i2l3247 1232                                   i2l3239 1202  
                                 i2l3191 10F2                                   i2l3183 10C2  
                                 i2l3175 109A                                   i2l3167 106C  
                                 i2l3159 103E                                   i2l3281 12EC  
                                 i2l3273 12BE                                   i2l3257 1268  
                                 i2l3265 1290                                   i2l3249 1242  
                                 i2l3185 10D0                                   i2l3193 10F8  
                                 i2l3177 10AA                                   i2l3169 1070  
                                 i2l3283 12F0                                   i2l3275 12CC  
                                 i2l3267 129E                                   i2l3259 1276  
                                 i2l3195 1106                                   i2l3187 10DE  
                                 i2l3179 10AE                                   i2l3285 12FE  
                                 i2l3277 12D0                                   i2l3269 12AC  
                                 i2l3197 1114                                   i2l3189 10EE  
                                 i2l3287 130C                                   i2l3279 12DE  
                                 i2l3199 1122                                   i2l1867 1734  
                          ??_Timer2_Init 0052                         __end_of_led_init 1622  
                                 clear_0 1686                                   _preVal 0023  
                                 isa$std 0001                                   fp__fun 0000  
                          relayOFF@F3056 0024                            led_init@F3053 002A  
                           __pdataCOMRAM 002B                             __mediumconst 0000  
                                 tblptrh 0FF7                                   tblptrl 0FF6  
                                 tblptru 0FF8                       _timer0PreloadValue 0007  
                             __accesstop 0080                  __end_of__initialization 168C  
                              ?_INT0_ISR 004E                                ?_INT1_ISR 004E  
                              ?_INT2_ISR 004E                            ___rparam_used 0001  
                 ??_gpio_pin_write_logic 0053                           __pcstackCOMRAM 004E  
                              ?_TMR0_ISR 004E                                ?_TMR1_ISR 004E  
                              ?_TMR2_ISR 004E                      __end_of_Timer2_Init 15B8  
                       _RB4_CallBack_LOW 0011                               ??_INT0_ISR 004E  
                             ??_INT1_ISR 004E                               ??_INT2_ISR 004E  
                             ??_TMR0_ISR 004E                 _timer2_interrupt_handler 0001  
                             ??_TMR1_ISR 004E                               ??_TMR2_ISR 004E  
                                _ADC_ISR 1756                          led_toggle@F3068 0027  
                                _RB4_ISR 1746                                  _RB5_ISR 1742  
                                _RB6_ISR 173E                                  _RB7_ISR 173A  
                                i2u37_40 16AE                                  i2u37_41 16AA  
                                i2u38_48 16B4                                  i2u38_49 16C6  
                              ?_led_init 005B                                  __Hparam 0000  
                            _Timer2_Init 1532                                  __Lparam 0000  
                    _gpio_pin_initialize 1622                             __psmallconst 1000  
                                __pcinit 1660                                  __ramtop 1000  
                                __ptext0 16C8                                  __ptext1 15B8  
                                __ptext2 1622                                  __ptext3 131C  
                                __ptext4 142C                                  __ptext5 1532  
                                __ptext7 1696                                  __ptext8 1734  
                                __ptext9 171C                                _T0CONbits 0FD5  
                              _T1CONbits 0FCD          ??_gpio_pin_direction_initialize 0052  
                              _T2CONbits 0FCA                     ?_gpio_pin_initialize 0059  
                         main@timer2_obj 005E                        _RB7_CallBack_HIGH 0013  
                         __pintcode_body 1006                               ??_led_init 005C  
                   end_of_initialization 168C                         _RB5_CallBack_LOW 000F  
                                int_func 1006                                  postdec1 0FE5  
                                postdec2 0FDD                    _timerInterrupthandler 0009  
                                postinc0 0FEE                                  postinc2 0FDE  
                           _INT0_CALBACK 001F                                _PORTBbits 0F81  
                           _INT1_CALBACK 001D                         _InterruptManager 0008  
                           _INT2_CALBACK 001B                    ??_gpio_pin_initialize 005A  
                             RB4_ISR@src 004E                               RB5_ISR@src 004E  
                             RB6_ISR@src 004E                               RB7_ISR@src 004E  
                          __pidataCOMRAM 16F8                      start_initialization 1660  
                            __end_of_fun 173A    __end_of_gpio_pin_direction_initialize 1532  
          _gpio_pin_direction_initialize 142C                         _RB6_CallBack_LOW 000D  
                               ?_ADC_ISR 004E                             relayON@F3051 0025  
                               ?_RB4_ISR 004E                                 ?_RB5_ISR 004E  
                               ?_RB6_ISR 004E                                 ?_RB7_ISR 004E  
                      _RB4_CallBack_HIGH 0019                              __pbssCOMRAM 0001  
         gpio_pin_write_logic@pin_config 0051                             ?_Timer2_Init 0051  
                              __pintcode 0008                gpio_pin_write_logic@logic 0052  
                           _PreLoadValue 0005                              __smallconst 1000  
                         relayInit@F3046 0026                                 _INT0_ISR 1752  
                               _INT1_ISR 174E                                 _INT2_ISR 174A  
                               _RB4_Flag 004C                         _RB7_CallBack_LOW 000B  
                               _RB5_Flag 004B                                 _RB6_Flag 004A  
                               _RB7_Flag 0049                 __end_of_InterruptManager 131C  
                               _PIE1bits 0F9D                                 i2u150_40 109A  
                               i2u142_40 101E                                 i2u150_41 1096  
                               i2u142_41 101A                                 i2u151_40 10AA  
                               i2u143_40 102C                                 i2u151_41 10A6  
                               i2u143_41 1028                                 i2u160_40 114A  
                               i2u152_40 10C2                                 i2u144_40 103E  
                               i2u160_41 1146                                 i2u152_41 10BE  
                               i2u144_41 103A                                 i2u161_40 1158  
                               i2u153_40 10D0                                 i2u145_40 104C  
                               i2u161_41 1154                                 i2u153_41 10CC  
                               i2u145_41 1048                                 i2u170_40 11EE  
                               i2u162_40 1166                                 i2u154_40 10DE  
                               i2u146_40 105E                                 i2u170_41 11EA  
                               i2u162_41 1162                                 i2u154_41 10DA  
                               i2u146_41 105A                                 i2u171_40 11FE  
                               i2u163_40 1176                                 i2u155_40 10EE  
                               i2u147_40 106C                                 i2u171_41 11FA  
                               i2u163_41 1172                                 i2u155_41 10EA  
                               i2u147_41 1068                                 i2u180_40 129E  
                               i2u172_40 1216                                 i2u164_40 118E  
                               i2u156_40 1106                                 i2u148_40 107E  
                               i2u180_41 129A                                 i2u172_41 1212  
                               i2u164_41 118A                                 i2u156_41 1102  
                               i2u148_41 107A                                 i2u181_40 12AC  
                               i2u173_40 1224                                 i2u165_40 119C  
                               i2u157_40 1114                                 i2u149_40 108C  
                               i2u181_41 12A8                                 i2u173_41 1220  
                               i2u165_41 1198                                 i2u157_41 1110  
                               i2u149_41 1088                                 i2u182_40 12BE  
                               i2u174_40 1232                                 i2u166_40 11AA  
                               i2u158_40 1122                                 i2u182_41 12BA  
                               i2u174_41 122E                                 i2u166_41 11A6  
                               i2u158_41 111E                                 i2u183_40 12CC  
                               i2u175_40 1242                                 i2u167_40 11BA  
                               i2u159_40 1132                                 i2u183_41 12C8  
                               i2u175_41 123E                                 i2u167_41 11B6  
                               i2u159_41 112E                                 i2u184_40 12DE  
                               i2u176_40 125A                                 i2u168_40 11D2  
                               i2u184_41 12DA                                 i2u176_41 1256  
                               i2u168_41 11CE                                 i2u185_40 12EC  
                               i2u177_40 1268                                 i2u169_40 11E0  
                               i2u185_41 12E8                                 i2u177_41 1264  
                               i2u169_41 11DC                                 _PIR1bits 0F9E  
                               i2u186_40 12FE                                 i2u178_40 1276  
                               i2u186_41 12FA                                 i2u178_41 1272  
                               i2u187_40 130C                                 i2u179_40 1286  
                               i2u187_41 1308                                 i2u179_41 1282  
                   _TMR1InterruptHandler 0003         gpio_pin_direction_initialize@ret 0057  
                               _TMR0_ISR 1728                                 _TMR1_ISR 171C  
                               _TMR2_ISR 1696                                _port_regs 002B  
                             _ADCON0bits 0FC2                               _ADCON1bits 0FC1  
                             _ADCON2bits 0FC0  gpio_pin_direction_initialize@pin_config 0051  
                              _tris_regs 003F                   gpio_pin_initialize@ret 005A  
                gpio_pin_write_logic@ret 0058                              _INTCON2bits 0FF1  
                            _INTCON3bits 0FF0                                copy_data0 1674  
                             _EECON1bits 0FA6                                 __Hrparam 0000  
                               __Lrparam 0000              __end_of_gpio_pin_initialize 1660  
                               __ptext10 1728                                 __ptext11 173A  
                               __ptext12 173E                                 __ptext13 1742  
                               __ptext14 1746                                 __ptext15 174A  
                               __ptext16 174E                                 __ptext17 1752  
                               __ptext18 1756                                 __ptext19 0000  
                               _led_init 15B8                                 _lat_regs 0035  
                               isa$xinst 0000                                 int$flags 0063  
                             _INTCONbits 0FF2                        _RB5_CallBack_HIGH 0017  
                         Timer2_Init@obj 0051             __end_of_gpio_pin_write_logic 142C  
                               intlevel2 0000                          led_init@pin_obj 005D  
                      ?_InterruptManager 004E  
