

Microchip MPLAB XC8 Assembler V2.45 build 20230818022343 
                                                                                               Thu Jan 25 20:21:18 2024

Microchip MPLAB XC8 C Compiler v2.45 (Free license) build 20230818022343 Og1 
     1                           	processor	18F4620
     2                           	fnconf	rparam,??,?,0
     3                           	pagewidth 120
     4                           	opt	flic
     5                           	psect	idataCOMRAM,global,class=CODE,delta=1,noexec
     6                           	psect	smallconst,global,reloc=2,class=SMALLCONST,delta=1,noexec
     7                           	psect	cinit,global,reloc=2,class=CODE,delta=1
     8                           	psect	bssCOMRAM,global,class=COMRAM,space=1,delta=1,lowdata,noexec
     9                           	psect	dataCOMRAM,global,class=COMRAM,space=1,delta=1,lowdata,noexec
    10                           	psect	cstackCOMRAM,global,class=COMRAM,space=1,delta=1,lowdata,noexec
    11                           	psect	text0,global,reloc=2,class=CODE,delta=1
    12                           	psect	text1,global,reloc=2,class=CODE,delta=1
    13                           	psect	text2,global,reloc=2,class=CODE,delta=1,inline
    14                           	psect	text3,global,reloc=2,class=CODE,delta=1,inline
    15                           	psect	text4,global,reloc=2,class=CODE,delta=1,inline
    16                           	psect	text5,global,reloc=2,class=CODE,delta=1
    17                           	psect	text6,global,reloc=2,class=CODE,delta=1
    18                           	psect	text7,global,reloc=2,class=CODE,delta=1
    19                           	psect	text8,global,reloc=2,class=CODE,delta=1
    20                           	psect	intcode,global,reloc=2,class=CODE,delta=1
    21                           	psect	intcode_body,global,reloc=2,class=CODE,delta=1
    22                           	psect	text10,global,reloc=2,class=CODE,delta=1
    23                           	psect	text11,global,reloc=2,class=CODE,delta=1
    24                           	psect	text12,global,reloc=2,class=CODE,delta=1
    25                           	psect	text13,global,reloc=2,class=CODE,delta=1
    26                           	psect	text14,global,reloc=2,class=CODE,delta=1
    27                           	psect	text15,global,reloc=2,class=CODE,delta=1
    28                           	psect	text16,global,reloc=2,class=CODE,delta=1
    29                           	psect	text17,global,reloc=2,class=CODE,delta=1
    30                           	psect	text18,global,reloc=2,class=CODE,delta=1
    31                           	psect	text19,global,reloc=2,class=CODE,delta=1
    32                           	psect	intsave_regs,global,class=BIGRAM,space=1,delta=1,noexec
    33                           	psect	text20,global,reloc=2,class=CODE,delta=1
    34                           	psect	rparam,global,class=COMRAM,space=1,delta=1,noexec
    35                           	psect	temp,global,ovrld,common,class=COMRAM,space=1,delta=1
    36                           	psect	config,global,abs,ovrld,class=CONFIG,space=4,delta=1,noexec
    37   000000                     
    38                           ; Generated 23/03/2023 GMT
    39                           ; 
    40                           ; Copyright © 2023, Microchip Technology Inc. and its subsidiaries ("Microchip")
    41                           ; All rights reserved.
    42                           ; 
    43                           ; This software is developed by Microchip Technology Inc. and its subsidiaries ("Microch
      +                          ip").
    44                           ; 
    45                           ; Redistribution and use in source and binary forms, with or without modification, are
    46                           ; permitted provided that the following conditions are met:
    47                           ; 
    48                           ;     1. Redistributions of source code must retain the above copyright notice, this lis
      +                          t of
    49                           ;        conditions and the following disclaimer.
    50                           ; 
    51                           ;     2. Redistributions in binary form must reproduce the above copyright notice, this 
      +                          list
    52                           ;        of conditions and the following disclaimer in the documentation and/or other
    53                           ;        materials provided with the distribution. Publication is not required when
    54                           ;        this file is used in an embedded application.
    55                           ; 
    56                           ;     3. Microchip's name may not be used to endorse or promote products derived from th
      +                          is
    57                           ;        software without specific prior written permission.
    58                           ; 
    59                           ; THIS SOFTWARE IS PROVIDED BY MICROCHIP "AS IS" AND ANY EXPRESS OR IMPLIED WARRANTIES,
    60                           ; INCLUDING, BUT NOT LIMITED TO, THE IMPLIED WARRANTIES OF MERCHANTABILITY AND FITNESS F
      +                          OR
    61                           ; PURPOSE ARE DISCLAIMED.  IN NO EVENT SHALL MICROCHIP BE LIABLE FOR ANY DIRECT, INDIREC
      +                          T,
    62                           ; INCIDENTAL, SPECIAL, EXEMPLARY, OR CONSEQUENTIAL DAMAGES (INCLUDING BUT NOT LIMITED TO
    63                           ; PROCUREMENT OF SUBSTITUTE GOODS OR SERVICES; LOSS OF USE, DATA OR PROFITS; OR BUSINESS
    64                           ; INTERRUPTION) HOWSOEVER CAUSED AND ON ANY THEORY OF LIABILITY, WHETHER IN CONTRACT, ST
      +                          RICT
    65                           ; LIABILITY, OR TORT (INCLUDING NEGLIGENCE OR OTHERWISE) ARISING IN ANY WAY OUT OF THE U
      +                          SE OF
    66                           ; THIS SOFTWARE, EVEN IF ADVISED OF THE POSSIBILITY OF SUCH DAMAGE.
    67                           ; 
    68                           ; 
    69                           ; Code-generator required, PIC18F4620 Definitions
    70                           ; 
    71                           ; SFR Addresses
    72   000000                     
    73                           	psect	idataCOMRAM
    74   00178C                     __pidataCOMRAM:
    75                           	callstack 0
    76                           
    77                           ;initializer for _port_regs
    78   00178C  80                 	db	128
    79   00178D  0F                 	db	15
    80   00178E  81                 	db	129
    81   00178F  0F                 	db	15
    82   001790  82                 	db	130
    83   001791  0F                 	db	15
    84   001792  83                 	db	131
    85   001793  0F                 	db	15
    86   001794  84                 	db	132
    87   001795  0F                 	db	15
    88                           
    89                           ;initializer for _lat_regs
    90   001796  89                 	db	137
    91   001797  0F                 	db	15
    92   001798  8A                 	db	138
    93   001799  0F                 	db	15
    94   00179A  8B                 	db	139
    95   00179B  0F                 	db	15
    96   00179C  8C                 	db	140
    97   00179D  0F                 	db	15
    98   00179E  8D                 	db	141
    99   00179F  0F                 	db	15
   100                           
   101                           ;initializer for _tris_regs
   102   0017A0  92                 	db	146
   103   0017A1  0F                 	db	15
   104   0017A2  93                 	db	147
   105   0017A3  0F                 	db	15
   106   0017A4  94                 	db	148
   107   0017A5  0F                 	db	15
   108   0017A6  95                 	db	149
   109   0017A7  0F                 	db	15
   110   0017A8  96                 	db	150
   111   0017A9  0F                 	db	15
   112                           
   113                           ;initializer for _RB7_Flag
   114   0017AA  01                 	db	1
   115                           
   116                           ;initializer for _RB6_Flag
   117   0017AB  01                 	db	1
   118                           
   119                           ;initializer for _RB5_Flag
   120   0017AC  01                 	db	1
   121                           
   122                           ;initializer for _RB4_Flag
   123   0017AD  01                 	db	1
   124                           
   125                           ;initializer for _tt
   126   0017AE  CE                 	db	low _functionss
   127   0017AF  17                 	db	high _functionss
   128   0017B0  00                 	db	0
   129   0017B1  02                 	db	2
   130   0017B2  0BDC               	dw	3036
   131   0017B4  05                 	db	5
   132                           
   133                           ;initializer for _led3
   134   0017B5  02                 	db	2
   135   000000                     _INTCON2bits	set	4081
   136   000000                     _EECON2	set	4007
   137   000000                     _EEDATA	set	4008
   138   000000                     _ADCON1bits	set	4033
   139   000000                     _ADRESL	set	4035
   140   000000                     _ADRESH	set	4036
   141   000000                     _INTCONbits	set	4082
   142   000000                     _TRISD	set	3989
   143   000000                     _TRISC	set	3988
   144   000000                     _TRISB	set	3987
   145   000000                     _TRISE	set	3990
   146   000000                     _PORTBbits	set	3969
   147   000000                     _PIE1bits	set	3997
   148   000000                     _ADCON2bits	set	4032
   149   000000                     _ADCON0bits	set	4034
   150   000000                     _PORTE	set	3972
   151   000000                     _PORTD	set	3971
   152   000000                     _PORTC	set	3970
   153   000000                     _PORTB	set	3969
   154   000000                     _PORTA	set	3968
   155   000000                     _LATA	set	3977
   156   000000                     _TRISA	set	3986
   157   000000                     _EECON1bits	set	4006
   158   000000                     _EEADR	set	4009
   159   000000                     _EEADRH	set	4010
   160   000000                     _PIR1bits	set	3998
   161   000000                     _T0CONbits	set	4053
   162   000000                     _TMR0L	set	4054
   163   000000                     _TMR0H	set	4055
   164   000000                     _INTCON3bits	set	4080
   165   000000                     _LATE	set	3981
   166   000000                     _LATD	set	3980
   167   000000                     _LATC	set	3979
   168   000000                     _LATB	set	3978
   169                           
   170                           	psect	smallconst
   171   001000                     __psmallconst:
   172                           	callstack 0
   173   001000  00                 	db	0
   174   001001                     STR_1:
   175   001001  25                 	db	37
   176   001002  69                 	db	105	;'i'
   177   001003  00                 	db	0
   178   001004  00                 	db	0	; dummy byte at the end
   179   000000                     
   180                           ; #config settings
   181                           
   182                           	psect	cinit
   183   001720                     __pcinit:
   184                           	callstack 0
   185   001720                     start_initialization:
   186                           	callstack 0
   187   001720                     __initialization:
   188                           	callstack 0
   189                           
   190                           ; Initialize objects allocated to COMRAM (42 bytes)
   191                           ; load TBLPTR registers with __pidataCOMRAM
   192   001720  0E8C               	movlw	low __pidataCOMRAM
   193   001722  6EF6               	movwf	tblptrl,c
   194   001724  0E17               	movlw	high __pidataCOMRAM
   195   001726  6EF7               	movwf	tblptrh,c
   196   001728  0E00               	movlw	low (__pidataCOMRAM shr (0+16))
   197   00172A  6EF8               	movwf	tblptru,c
   198   00172C  EE00  F001         	lfsr	0,__pdataCOMRAM
   199   001730  EE10 F02A          	lfsr	1,42
   200   001734                     copy_data0:
   201   001734  0009               	tblrd		*+
   202   001736  CFF5 FFEE          	movff	tablat,postinc0
   203   00173A  50E5               	movf	postdec1,w,c
   204   00173C  50E1               	movf	fsr1l,w,c
   205   00173E  E1FA               	bnz	copy_data0
   206                           
   207                           ; Clear objects allocated to COMRAM (37 bytes)
   208   001740  EE00  F02B         	lfsr	0,__pbssCOMRAM
   209   001744  0E25               	movlw	37
   210   001746                     clear_0:
   211   001746  6AEE               	clrf	postinc0,c
   212   001748  06E8               	decf	wreg,f,c
   213   00174A  E1FD               	bnz	clear_0
   214   00174C                     end_of_initialization:
   215                           	callstack 0
   216   00174C                     __end_of__initialization:
   217                           	callstack 0
   218   00174C  9060               	bcf	int$flags,0,c	;clear compiler interrupt flag (level 1)
   219   00174E  9260               	bcf	int$flags,1,c	;clear compiler interrupt flag (level 2)
   220   001750  0100               	movlb	0
   221   001752  EFDB  F00B         	goto	_main	;jump to C main() function
   222                           
   223                           	psect	bssCOMRAM
   224   00002B                     __pbssCOMRAM:
   225                           	callstack 0
   226   00002B                     _timer0PreloadValue:
   227                           	callstack 0
   228   00002B                     	ds	2
   229   00002D                     _Handler:
   230                           	callstack 0
   231   00002D                     	ds	2
   232   00002F                     _flag:
   233                           	callstack 0
   234   00002F                     	ds	2
   235   000031                     _RB7_CallBack_LOW:
   236                           	callstack 0
   237   000031                     	ds	2
   238   000033                     _RB6_CallBack_LOW:
   239                           	callstack 0
   240   000033                     	ds	2
   241   000035                     _RB5_CallBack_LOW:
   242                           	callstack 0
   243   000035                     	ds	2
   244   000037                     _RB4_CallBack_LOW:
   245                           	callstack 0
   246   000037                     	ds	2
   247   000039                     _RB7_CallBack_HIGH:
   248                           	callstack 0
   249   000039                     	ds	2
   250   00003B                     _RB6_CallBack_HIGH:
   251                           	callstack 0
   252   00003B                     	ds	2
   253   00003D                     _RB5_CallBack_HIGH:
   254                           	callstack 0
   255   00003D                     	ds	2
   256   00003F                     _RB4_CallBack_HIGH:
   257                           	callstack 0
   258   00003F                     	ds	2
   259   000041                     _INT2_CALBACK:
   260                           	callstack 0
   261   000041                     	ds	2
   262   000043                     _INT1_CALBACK:
   263                           	callstack 0
   264   000043                     	ds	2
   265   000045                     _INT0_CALBACK:
   266                           	callstack 0
   267   000045                     	ds	2
   268   000047                     _ADC_CALLBACK:
   269                           	callstack 0
   270   000047                     	ds	2
   271   000049                     relayOFF@F3056:
   272                           	callstack 0
   273   000049                     	ds	1
   274   00004A                     relayON@F3051:
   275                           	callstack 0
   276   00004A                     	ds	1
   277   00004B                     relayInit@F3046:
   278                           	callstack 0
   279   00004B                     	ds	1
   280   00004C                     led_toggle@F3068:
   281                           	callstack 0
   282   00004C                     	ds	1
   283   00004D                     led_off@F3063:
   284                           	callstack 0
   285   00004D                     	ds	1
   286   00004E                     led_on@F3058:
   287                           	callstack 0
   288   00004E                     	ds	1
   289   00004F                     led_init@F3053:
   290                           	callstack 0
   291   00004F                     	ds	1
   292                           
   293                           	psect	dataCOMRAM
   294   000001                     __pdataCOMRAM:
   295                           	callstack 0
   296   000001                     _port_regs:
   297                           	callstack 0
   298   000001                     	ds	10
   299   00000B                     _lat_regs:
   300                           	callstack 0
   301   00000B                     	ds	10
   302   000015                     _tris_regs:
   303                           	callstack 0
   304   000015                     	ds	10
   305   00001F                     _RB7_Flag:
   306                           	callstack 0
   307   00001F                     	ds	1
   308   000020                     _RB6_Flag:
   309                           	callstack 0
   310   000020                     	ds	1
   311   000021                     _RB5_Flag:
   312                           	callstack 0
   313   000021                     	ds	1
   314   000022                     _RB4_Flag:
   315                           	callstack 0
   316   000022                     	ds	1
   317   000023                     _tt:
   318                           	callstack 0
   319   000023                     	ds	7
   320   00002A                     _led3:
   321                           	callstack 0
   322   00002A                     	ds	1
   323                           
   324                           	psect	cstackCOMRAM
   325   000050                     __pcstackCOMRAM:
   326                           	callstack 0
   327   000050                     RB4_ISR@src:
   328                           	callstack 0
   329   000050                     RB5_ISR@src:
   330                           	callstack 0
   331   000050                     RB6_ISR@src:
   332                           	callstack 0
   333   000050                     RB7_ISR@src:
   334                           	callstack 0
   335                           
   336                           ; 1 bytes @ 0x0
   337   000050                     	ds	1
   338   000051                     ??_InterruptManager:
   339                           
   340                           ; 1 bytes @ 0x1
   341   000051                     	ds	2
   342   000053                     gpio_pin_direction_initialize@pin_config:
   343                           	callstack 0
   344   000053                     gpio_pin_write_logic@pin_config:
   345                           	callstack 0
   346   000053                     preScalerConfig@obj:
   347                           	callstack 0
   348   000053                     modeSelect@obj:
   349                           	callstack 0
   350   000053                     regSelectSize@obj:
   351                           	callstack 0
   352                           
   353                           ; 1 bytes @ 0x3
   354   000053                     	ds	1
   355   000054                     ??_gpio_pin_direction_initialize:
   356   000054                     ??_preScalerConfig:
   357   000054                     gpio_pin_write_logic@logic:
   358                           	callstack 0
   359                           
   360                           ; 1 bytes @ 0x4
   361   000054                     	ds	1
   362   000055                     ??_gpio_pin_write_logic:
   363   000055                     timer0_Init@obj:
   364                           	callstack 0
   365                           
   366                           ; 1 bytes @ 0x5
   367   000055                     	ds	1
   368   000056                     ??_timer0_Init:
   369                           
   370                           ; 1 bytes @ 0x6
   371   000056                     	ds	3
   372   000059                     gpio_pin_direction_initialize@ret:
   373                           	callstack 0
   374                           
   375                           ; 1 bytes @ 0x9
   376   000059                     	ds	1
   377   00005A                     gpio_pin_write_logic@ret:
   378                           	callstack 0
   379                           
   380                           ; 1 bytes @ 0xA
   381   00005A                     	ds	1
   382   00005B                     gpio_pin_initialize@pin_config:
   383                           	callstack 0
   384                           
   385                           ; 1 bytes @ 0xB
   386   00005B                     	ds	1
   387   00005C                     gpio_pin_initialize@ret:
   388                           	callstack 0
   389                           
   390                           ; 1 bytes @ 0xC
   391   00005C                     	ds	1
   392   00005D                     led_init@led:
   393                           	callstack 0
   394                           
   395                           ; 1 bytes @ 0xD
   396   00005D                     	ds	1
   397   00005E                     ??_led_init:
   398                           
   399                           ; 1 bytes @ 0xE
   400   00005E                     	ds	1
   401   00005F                     led_init@pin_obj:
   402                           	callstack 0
   403                           
   404                           ; 1 bytes @ 0xF
   405   00005F                     	ds	1
   406   000060                     
   407                           ; 1 bytes @ 0x10
   408 ;;
   409 ;;Main: autosize = 0, tempsize = 0, incstack = 0, save=0
   410 ;;
   411 ;; *************** function _main *****************
   412 ;; Defined at:
   413 ;;		line 34 in file "Application.c"
   414 ;; Parameters:    Size  Location     Type
   415 ;;		None
   416 ;; Auto vars:     Size  Location     Type
   417 ;;		None
   418 ;; Return value:  Size  Location     Type
   419 ;;                  2  835[None  ] int 
   420 ;; Registers used:
   421 ;;		wreg, fsr2l, fsr2h, status,2, status,0, prodl, prodh, cstack
   422 ;; Tracked objects:
   423 ;;		On entry : 0/0
   424 ;;		On exit  : 0/0
   425 ;;		Unchanged: 0/0
   426 ;; Data sizes:     COMRAM   BANK0   BANK1   BANK2   BANK3   BANK4   BANK5   BANK6   BANK7   BANK8   BANK9  BANK10  BANK1
      +1  BANK12  BANK13  BANK14  BANK15
   427 ;;      Params:         0       0       0       0       0       0       0       0       0       0       0       0       
      +0       0       0       0       0
   428 ;;      Locals:         0       0       0       0       0       0       0       0       0       0       0       0       
      +0       0       0       0       0
   429 ;;      Temps:          0       0       0       0       0       0       0       0       0       0       0       0       
      +0       0       0       0       0
   430 ;;      Totals:         0       0       0       0       0       0       0       0       0       0       0       0       
      +0       0       0       0       0
   431 ;;Total ram usage:        0 bytes
   432 ;; Hardware stack levels required when called: 6
   433 ;; This function calls:
   434 ;;		_led_init
   435 ;;		_timer0_Init
   436 ;; This function is called by:
   437 ;;		Startup code after reset
   438 ;; This function uses a non-reentrant model
   439 ;;
   440                           
   441                           	psect	text0
   442   0017B6                     __ptext0:
   443                           	callstack 0
   444   0017B6                     _main:
   445                           	callstack 25
   446   0017B6                     
   447                           ;Application.c: 36:  led_init(&led3);
   448   0017B6  0E2A               	movlw	low _led3
   449   0017B8  6E5D               	movwf	led_init@led^0,c
   450   0017BA  ECF6  F00A         	call	_led_init	;wreg free
   451   0017BE                     
   452                           ;Application.c: 37:  timer0_Init(&tt);
   453   0017BE  0E23               	movlw	low _tt
   454   0017C0  6E55               	movwf	timer0_Init@obj^0,c
   455   0017C2  EC79  F00A         	call	_timer0_Init	;wreg free
   456   0017C6                     l836:
   457   0017C6  EFE3  F00B         	goto	l836
   458   0017CA  EF07  F000         	goto	start
   459   0017CE                     __end_of_main:
   460                           	callstack 0
   461                           
   462 ;; *************** function _timer0_Init *****************
   463 ;; Defined at:
   464 ;;		line 28 in file "MCAL_Layer/TIMER0/hal_timer0.c"
   465 ;; Parameters:    Size  Location     Type
   466 ;;  obj             1    5[COMRAM] PTR const struct .
   467 ;;		 -> tt(7), 
   468 ;; Auto vars:     Size  Location     Type
   469 ;;  ret             1    0        unsigned char 
   470 ;; Return value:  Size  Location     Type
   471 ;;                  1    wreg      unsigned char 
   472 ;; Registers used:
   473 ;;		wreg, fsr2l, fsr2h, status,2, status,0, cstack
   474 ;; Tracked objects:
   475 ;;		On entry : 0/0
   476 ;;		On exit  : 0/0
   477 ;;		Unchanged: 0/0
   478 ;; Data sizes:     COMRAM   BANK0   BANK1   BANK2   BANK3   BANK4   BANK5   BANK6   BANK7   BANK8   BANK9  BANK10  BANK1
      +1  BANK12  BANK13  BANK14  BANK15
   479 ;;      Params:         1       0       0       0       0       0       0       0       0       0       0       0       
      +0       0       0       0       0
   480 ;;      Locals:         0       0       0       0       0       0       0       0       0       0       0       0       
      +0       0       0       0       0
   481 ;;      Temps:          2       0       0       0       0       0       0       0       0       0       0       0       
      +0       0       0       0       0
   482 ;;      Totals:         3       0       0       0       0       0       0       0       0       0       0       0       
      +0       0       0       0       0
   483 ;;Total ram usage:        3 bytes
   484 ;; Hardware stack levels used: 1
   485 ;; Hardware stack levels required when called: 4
   486 ;; This function calls:
   487 ;;		_modeSelect
   488 ;;		_preScalerConfig
   489 ;;		_regSelectSize
   490 ;; This function is called by:
   491 ;;		_main
   492 ;; This function uses a non-reentrant model
   493 ;;
   494                           
   495                           	psect	text1
   496   0014F2                     __ptext1:
   497                           	callstack 0
   498   0014F2                     _timer0_Init:
   499                           	callstack 26
   500   0014F2                     
   501                           ;MCAL_Layer/TIMER0/hal_timer0.c: 31:  if ((((void*)0) == obj)) {
   502   0014F2  5055               	movf	timer0_Init@obj^0,w,c
   503   0014F4  A4D8               	btfss	status,2,c
   504   0014F6  EF7F  F00A         	goto	u2341
   505   0014FA  EF81  F00A         	goto	u2340
   506   0014FE                     u2341:
   507   0014FE  EF83  F00A         	goto	l864
   508   001502                     u2340:
   509   001502                     
   510                           ;MCAL_Layer/TIMER0/hal_timer0.c: 33:  } else {
   511   001502  EFBA  F00A         	goto	l866
   512   001506                     l864:
   513                           
   514                           ;MCAL_Layer/TIMER0/hal_timer0.c: 34:   (T0CONbits.TMR0ON = 0);
   515   001506  9ED5               	bcf	213,7,c	;volatile
   516   001508                     
   517                           ;MCAL_Layer/TIMER0/hal_timer0.c: 35:   preScalerConfig(obj);
   518   001508  C055  F053         	movff	timer0_Init@obj,preScalerConfig@obj
   519   00150C  EC2B  F00B         	call	_preScalerConfig	;wreg free
   520                           
   521                           ;MCAL_Layer/TIMER0/hal_timer0.c: 36:   modeSelect(obj);
   522   001510  C055  F053         	movff	timer0_Init@obj,modeSelect@obj
   523   001514  ECBB  F00A         	call	_modeSelect	;wreg free
   524                           
   525                           ;MCAL_Layer/TIMER0/hal_timer0.c: 37:   regSelectSize(obj);
   526   001518  C055  F053         	movff	timer0_Init@obj,regSelectSize@obj
   527   00151C  EC73  F00B         	call	_regSelectSize	;wreg free
   528   001520                     
   529                           ;MCAL_Layer/TIMER0/hal_timer0.c: 38:   TMR0H = (uint8_t) ((obj->preloadedValue) >> 8);
   530   001520  5055               	movf	timer0_Init@obj^0,w,c
   531   001522  6ED9               	movwf	fsr2l,c
   532   001524  6ADA               	clrf	fsr2h,c
   533   001526  0E04               	movlw	4
   534   001528  26D9               	addwf	fsr2l,f,c
   535   00152A  CFDE F056          	movff	postinc2,??_timer0_Init
   536   00152E  CFDD F057          	movff	postdec2,??_timer0_Init+1
   537   001532  C057  F056         	movff	??_timer0_Init+1,??_timer0_Init
   538   001536  6A57               	clrf	(??_timer0_Init+1)^0,c
   539   001538  5056               	movf	??_timer0_Init^0,w,c
   540   00153A  6ED7               	movwf	215,c	;volatile
   541   00153C                     
   542                           ;MCAL_Layer/TIMER0/hal_timer0.c: 39:   TMR0L = (uint8_t) (obj->preloadedValue);
   543   00153C  5055               	movf	timer0_Init@obj^0,w,c
   544   00153E  6ED9               	movwf	fsr2l,c
   545   001540  6ADA               	clrf	fsr2h,c
   546   001542  0E04               	movlw	4
   547   001544  26D9               	addwf	fsr2l,f,c
   548   001546  50DF               	movf	indf2,w,c
   549   001548  6ED6               	movwf	214,c	;volatile
   550   00154A                     
   551                           ;MCAL_Layer/TIMER0/hal_timer0.c: 40:   timer0PreloadValue = obj->preloadedValue;
   552   00154A  5055               	movf	timer0_Init@obj^0,w,c
   553   00154C  6ED9               	movwf	fsr2l,c
   554   00154E  6ADA               	clrf	fsr2h,c
   555   001550  0E04               	movlw	4
   556   001552  26D9               	addwf	fsr2l,f,c
   557   001554  CFDE F02B          	movff	postinc2,_timer0PreloadValue
   558   001558  CFDD F02C          	movff	postdec2,_timer0PreloadValue+1
   559   00155C                     
   560                           ;MCAL_Layer/TIMER0/hal_timer0.c: 42:   (INTCONbits.TMR0IF= 0);
   561   00155C  94F2               	bcf	242,2,c	;volatile
   562   00155E                     
   563                           ;MCAL_Layer/TIMER0/hal_timer0.c: 43:   (INTCONbits.TMR0IE = 1);
   564   00155E  8AF2               	bsf	242,5,c	;volatile
   565   001560                     
   566                           ;MCAL_Layer/TIMER0/hal_timer0.c: 44:   Handler = obj->callBack;
   567   001560  5055               	movf	timer0_Init@obj^0,w,c
   568   001562  6ED9               	movwf	fsr2l,c
   569   001564  6ADA               	clrf	fsr2h,c
   570   001566  CFDE F02D          	movff	postinc2,_Handler
   571   00156A  CFDD F02E          	movff	postdec2,_Handler+1
   572   00156E                     
   573                           ;MCAL_Layer/TIMER0/hal_timer0.c: 57:   (INTCONbits.GIE = 1);
   574   00156E  8EF2               	bsf	242,7,c	;volatile
   575   001570                     
   576                           ;MCAL_Layer/TIMER0/hal_timer0.c: 58:   (INTCONbits.PEIE = 1);
   577   001570  8CF2               	bsf	242,6,c	;volatile
   578   001572                     
   579                           ;MCAL_Layer/TIMER0/hal_timer0.c: 62:   (T0CONbits.TMR0ON = 1);
   580   001572  8ED5               	bsf	213,7,c	;volatile
   581   001574                     l866:
   582   001574  0012               	return		;funcret
   583   001576                     __end_of_timer0_Init:
   584                           	callstack 0
   585                           
   586 ;; *************** function _regSelectSize *****************
   587 ;; Defined at:
   588 ;;		line 138 in file "MCAL_Layer/TIMER0/hal_timer0.c"
   589 ;; Parameters:    Size  Location     Type
   590 ;;  obj             1    3[COMRAM] PTR const struct .
   591 ;;		 -> tt(7), 
   592 ;; Auto vars:     Size  Location     Type
   593 ;;		None
   594 ;; Return value:  Size  Location     Type
   595 ;;                  1    wreg      void 
   596 ;; Registers used:
   597 ;;		wreg, fsr2l, fsr2h, status,2, status,0
   598 ;; Tracked objects:
   599 ;;		On entry : 0/0
   600 ;;		On exit  : 0/0
   601 ;;		Unchanged: 0/0
   602 ;; Data sizes:     COMRAM   BANK0   BANK1   BANK2   BANK3   BANK4   BANK5   BANK6   BANK7   BANK8   BANK9  BANK10  BANK1
      +1  BANK12  BANK13  BANK14  BANK15
   603 ;;      Params:         1       0       0       0       0       0       0       0       0       0       0       0       
      +0       0       0       0       0
   604 ;;      Locals:         0       0       0       0       0       0       0       0       0       0       0       0       
      +0       0       0       0       0
   605 ;;      Temps:          0       0       0       0       0       0       0       0       0       0       0       0       
      +0       0       0       0       0
   606 ;;      Totals:         1       0       0       0       0       0       0       0       0       0       0       0       
      +0       0       0       0       0
   607 ;;Total ram usage:        1 bytes
   608 ;; Hardware stack levels used: 1
   609 ;; Hardware stack levels required when called: 3
   610 ;; This function calls:
   611 ;;		Nothing
   612 ;; This function is called by:
   613 ;;		_timer0_Init
   614 ;; This function uses a non-reentrant model
   615 ;;
   616                           
   617                           	psect	text2
   618   0016E6                     __ptext2:
   619                           	callstack 0
   620   0016E6                     _regSelectSize:
   621                           	callstack 26
   622   0016E6                     
   623                           ;MCAL_Layer/TIMER0/hal_timer0.c: 138: static __attribute__((inline)) void regSelectSize(
      +                          const timer0_t* obj);MCAL_Layer/TIMER0/hal_timer0.c: 139: {;MCAL_Layer/TIMER0/hal_timer0
      +                          .c: 140:  if (1 == obj->regSize) {
   624   0016E6  5053               	movf	regSelectSize@obj^0,w,c
   625   0016E8  6ED9               	movwf	fsr2l,c
   626   0016EA  6ADA               	clrf	fsr2h,c
   627   0016EC  0E06               	movlw	6
   628   0016EE  26D9               	addwf	fsr2l,f,c
   629   0016F0  A6DF               	btfss	indf2,3,c
   630   0016F2  EF7D  F00B         	goto	u2231
   631   0016F6  EF7F  F00B         	goto	u2230
   632   0016FA                     u2231:
   633   0016FA  EF82  F00B         	goto	l3431
   634   0016FE                     u2230:
   635   0016FE                     
   636                           ;MCAL_Layer/TIMER0/hal_timer0.c: 141:   (T0CONbits.T08BIT=1);
   637   0016FE  8CD5               	bsf	213,6,c	;volatile
   638                           
   639                           ;MCAL_Layer/TIMER0/hal_timer0.c: 142:  } else if (0 == obj->regSize) {
   640   001700  EF8F  F00B         	goto	l908
   641   001704                     l3431:
   642   001704  5053               	movf	regSelectSize@obj^0,w,c
   643   001706  6ED9               	movwf	fsr2l,c
   644   001708  6ADA               	clrf	fsr2h,c
   645   00170A  0E06               	movlw	6
   646   00170C  26D9               	addwf	fsr2l,f,c
   647   00170E  B6DF               	btfsc	indf2,3,c
   648   001710  EF8C  F00B         	goto	u2241
   649   001714  EF8E  F00B         	goto	u2240
   650   001718                     u2241:
   651   001718  EF8F  F00B         	goto	l908
   652   00171C                     u2240:
   653   00171C                     
   654                           ;MCAL_Layer/TIMER0/hal_timer0.c: 143:   (T0CONbits.T08BIT=0);
   655   00171C  9CD5               	bcf	213,6,c	;volatile
   656   00171E                     l908:
   657   00171E  0012               	return		;funcret
   658   001720                     __end_of_regSelectSize:
   659                           	callstack 0
   660                           
   661 ;; *************** function _preScalerConfig *****************
   662 ;; Defined at:
   663 ;;		line 108 in file "MCAL_Layer/TIMER0/hal_timer0.c"
   664 ;; Parameters:    Size  Location     Type
   665 ;;  obj             1    3[COMRAM] PTR const struct .
   666 ;;		 -> tt(7), 
   667 ;; Auto vars:     Size  Location     Type
   668 ;;		None
   669 ;; Return value:  Size  Location     Type
   670 ;;                  1    wreg      void 
   671 ;; Registers used:
   672 ;;		wreg, fsr2l, fsr2h, status,2, status,0
   673 ;; Tracked objects:
   674 ;;		On entry : 0/0
   675 ;;		On exit  : 0/0
   676 ;;		Unchanged: 0/0
   677 ;; Data sizes:     COMRAM   BANK0   BANK1   BANK2   BANK3   BANK4   BANK5   BANK6   BANK7   BANK8   BANK9  BANK10  BANK1
      +1  BANK12  BANK13  BANK14  BANK15
   678 ;;      Params:         1       0       0       0       0       0       0       0       0       0       0       0       
      +0       0       0       0       0
   679 ;;      Locals:         0       0       0       0       0       0       0       0       0       0       0       0       
      +0       0       0       0       0
   680 ;;      Temps:          1       0       0       0       0       0       0       0       0       0       0       0       
      +0       0       0       0       0
   681 ;;      Totals:         2       0       0       0       0       0       0       0       0       0       0       0       
      +0       0       0       0       0
   682 ;;Total ram usage:        2 bytes
   683 ;; Hardware stack levels used: 1
   684 ;; Hardware stack levels required when called: 3
   685 ;; This function calls:
   686 ;;		Nothing
   687 ;; This function is called by:
   688 ;;		_timer0_Init
   689 ;; This function uses a non-reentrant model
   690 ;;
   691                           
   692                           	psect	text3
   693   001656                     __ptext3:
   694                           	callstack 0
   695   001656                     _preScalerConfig:
   696                           	callstack 26
   697   001656                     
   698                           ;MCAL_Layer/TIMER0/hal_timer0.c: 108: static __attribute__((inline)) void preScalerConfi
      +                          g(const timer0_t* obj);MCAL_Layer/TIMER0/hal_timer0.c: 109: {;MCAL_Layer/TIMER0/hal_time
      +                          r0.c: 110:  if (1 == obj->prescalerEnable) {
   699   001656  5053               	movf	preScalerConfig@obj^0,w,c
   700   001658  6ED9               	movwf	fsr2l,c
   701   00165A  6ADA               	clrf	fsr2h,c
   702   00165C  0E06               	movlw	6
   703   00165E  26D9               	addwf	fsr2l,f,c
   704   001660  A0DF               	btfss	indf2,0,c
   705   001662  EF35  F00B         	goto	u2171
   706   001666  EF37  F00B         	goto	u2170
   707   00166A                     u2171:
   708   00166A  EF46  F00B         	goto	l3407
   709   00166E                     u2170:
   710   00166E                     
   711                           ;MCAL_Layer/TIMER0/hal_timer0.c: 111:   (T0CONbits.PSA = 1);
   712   00166E  86D5               	bsf	213,3,c	;volatile
   713   001670                     
   714                           ;MCAL_Layer/TIMER0/hal_timer0.c: 112:   T0CONbits.T0PS = obj->prescalerValue;
   715   001670  5053               	movf	preScalerConfig@obj^0,w,c
   716   001672  6ED9               	movwf	fsr2l,c
   717   001674  6ADA               	clrf	fsr2h,c
   718   001676  0E03               	movlw	3
   719   001678  26D9               	addwf	fsr2l,f,c
   720   00167A  50DF               	movf	indf2,w,c
   721   00167C  6E54               	movwf	??_preScalerConfig^0,c
   722   00167E  50D5               	movf	213,w,c	;volatile
   723   001680  1854               	xorwf	??_preScalerConfig^0,w,c
   724   001682  0BF8               	andlw	-8
   725   001684  1854               	xorwf	??_preScalerConfig^0,w,c
   726   001686  6ED5               	movwf	213,c	;volatile
   727                           
   728                           ;MCAL_Layer/TIMER0/hal_timer0.c: 113:  } else if (0 == obj->prescalerEnable) {
   729   001688  EF53  F00B         	goto	l890
   730   00168C                     l3407:
   731   00168C  5053               	movf	preScalerConfig@obj^0,w,c
   732   00168E  6ED9               	movwf	fsr2l,c
   733   001690  6ADA               	clrf	fsr2h,c
   734   001692  0E06               	movlw	6
   735   001694  26D9               	addwf	fsr2l,f,c
   736   001696  B0DF               	btfsc	indf2,0,c
   737   001698  EF50  F00B         	goto	u2181
   738   00169C  EF52  F00B         	goto	u2180
   739   0016A0                     u2181:
   740   0016A0  EF53  F00B         	goto	l890
   741   0016A4                     u2180:
   742   0016A4                     
   743                           ;MCAL_Layer/TIMER0/hal_timer0.c: 114:   (T0CONbits.PSA = 1);
   744   0016A4  86D5               	bsf	213,3,c	;volatile
   745   0016A6                     l890:
   746   0016A6  0012               	return		;funcret
   747   0016A8                     __end_of_preScalerConfig:
   748                           	callstack 0
   749                           
   750 ;; *************** function _modeSelect *****************
   751 ;; Defined at:
   752 ;;		line 120 in file "MCAL_Layer/TIMER0/hal_timer0.c"
   753 ;; Parameters:    Size  Location     Type
   754 ;;  obj             1    3[COMRAM] PTR const struct .
   755 ;;		 -> tt(7), 
   756 ;; Auto vars:     Size  Location     Type
   757 ;;		None
   758 ;; Return value:  Size  Location     Type
   759 ;;                  1    wreg      void 
   760 ;; Registers used:
   761 ;;		wreg, fsr2l, fsr2h, status,2, status,0
   762 ;; Tracked objects:
   763 ;;		On entry : 0/0
   764 ;;		On exit  : 0/0
   765 ;;		Unchanged: 0/0
   766 ;; Data sizes:     COMRAM   BANK0   BANK1   BANK2   BANK3   BANK4   BANK5   BANK6   BANK7   BANK8   BANK9  BANK10  BANK1
      +1  BANK12  BANK13  BANK14  BANK15
   767 ;;      Params:         1       0       0       0       0       0       0       0       0       0       0       0       
      +0       0       0       0       0
   768 ;;      Locals:         0       0       0       0       0       0       0       0       0       0       0       0       
      +0       0       0       0       0
   769 ;;      Temps:          0       0       0       0       0       0       0       0       0       0       0       0       
      +0       0       0       0       0
   770 ;;      Totals:         1       0       0       0       0       0       0       0       0       0       0       0       
      +0       0       0       0       0
   771 ;;Total ram usage:        1 bytes
   772 ;; Hardware stack levels used: 1
   773 ;; Hardware stack levels required when called: 3
   774 ;; This function calls:
   775 ;;		Nothing
   776 ;; This function is called by:
   777 ;;		_timer0_Init
   778 ;; This function uses a non-reentrant model
   779 ;;
   780                           
   781                           	psect	text4
   782   001576                     __ptext4:
   783                           	callstack 0
   784   001576                     _modeSelect:
   785                           	callstack 26
   786   001576                     
   787                           ;MCAL_Layer/TIMER0/hal_timer0.c: 120: static __attribute__((inline)) void modeSelect(con
      +                          st timer0_t* obj);MCAL_Layer/TIMER0/hal_timer0.c: 121: {;MCAL_Layer/TIMER0/hal_timer0.c:
      +                           122:  if (0 == obj->mode) {
   788   001576  5053               	movf	modeSelect@obj^0,w,c
   789   001578  6ED9               	movwf	fsr2l,c
   790   00157A  6ADA               	clrf	fsr2h,c
   791   00157C  0E06               	movlw	6
   792   00157E  26D9               	addwf	fsr2l,f,c
   793   001580  B4DF               	btfsc	indf2,2,c
   794   001582  EFC5  F00A         	goto	u2191
   795   001586  EFC7  F00A         	goto	u2190
   796   00158A                     u2191:
   797   00158A  EFE8  F00A         	goto	l3423
   798   00158E                     u2190:
   799   00158E                     
   800                           ;MCAL_Layer/TIMER0/hal_timer0.c: 123:   (T0CONbits.T0CS = 1);
   801   00158E  8AD5               	bsf	213,5,c	;volatile
   802   001590                     
   803                           ;MCAL_Layer/TIMER0/hal_timer0.c: 124:   if (0 == obj->counterEdge) {
   804   001590  5053               	movf	modeSelect@obj^0,w,c
   805   001592  6ED9               	movwf	fsr2l,c
   806   001594  6ADA               	clrf	fsr2h,c
   807   001596  0E06               	movlw	6
   808   001598  26D9               	addwf	fsr2l,f,c
   809   00159A  B2DF               	btfsc	indf2,1,c
   810   00159C  EFD2  F00A         	goto	u2201
   811   0015A0  EFD4  F00A         	goto	u2200
   812   0015A4                     u2201:
   813   0015A4  EFD7  F00A         	goto	l3419
   814   0015A8                     u2200:
   815   0015A8                     
   816                           ;MCAL_Layer/TIMER0/hal_timer0.c: 125:    (T0CONbits.T0SE = 1);
   817   0015A8  88D5               	bsf	213,4,c	;volatile
   818                           
   819                           ;MCAL_Layer/TIMER0/hal_timer0.c: 126:   } else if (1 == obj->counterEdge) {
   820   0015AA  EFF5  F00A         	goto	l901
   821   0015AE                     l3419:
   822   0015AE  5053               	movf	modeSelect@obj^0,w,c
   823   0015B0  6ED9               	movwf	fsr2l,c
   824   0015B2  6ADA               	clrf	fsr2h,c
   825   0015B4  0E06               	movlw	6
   826   0015B6  26D9               	addwf	fsr2l,f,c
   827   0015B8  A2DF               	btfss	indf2,1,c
   828   0015BA  EFE1  F00A         	goto	u2211
   829   0015BE  EFE3  F00A         	goto	u2210
   830   0015C2                     u2211:
   831   0015C2  EFE6  F00A         	goto	l895
   832   0015C6                     u2210:
   833   0015C6                     
   834                           ;MCAL_Layer/TIMER0/hal_timer0.c: 127:    (T0CONbits.T0SE = 0);
   835   0015C6  98D5               	bcf	213,4,c	;volatile
   836                           
   837                           ;MCAL_Layer/TIMER0/hal_timer0.c: 128:   } else {
   838   0015C8  EFF5  F00A         	goto	l901
   839   0015CC                     l895:
   840                           
   841                           ;MCAL_Layer/TIMER0/hal_timer0.c: 131:  } else if (1 == obj->mode) {
   842   0015CC  EFF5  F00A         	goto	l901
   843   0015D0                     l3423:
   844   0015D0  5053               	movf	modeSelect@obj^0,w,c
   845   0015D2  6ED9               	movwf	fsr2l,c
   846   0015D4  6ADA               	clrf	fsr2h,c
   847   0015D6  0E06               	movlw	6
   848   0015D8  26D9               	addwf	fsr2l,f,c
   849   0015DA  A4DF               	btfss	indf2,2,c
   850   0015DC  EFF2  F00A         	goto	u2221
   851   0015E0  EFF4  F00A         	goto	u2220
   852   0015E4                     u2221:
   853   0015E4  EFF5  F00A         	goto	l901
   854   0015E8                     u2220:
   855   0015E8                     
   856                           ;MCAL_Layer/TIMER0/hal_timer0.c: 132:   (T0CONbits.T0CS = 0);
   857   0015E8  9AD5               	bcf	213,5,c	;volatile
   858   0015EA                     l901:
   859   0015EA  0012               	return		;funcret
   860   0015EC                     __end_of_modeSelect:
   861                           	callstack 0
   862                           
   863 ;; *************** function _led_init *****************
   864 ;; Defined at:
   865 ;;		line 9 in file "ECU_Layer/LED/ecu_led.c"
   866 ;; Parameters:    Size  Location     Type
   867 ;;  led             1   13[COMRAM] PTR const struct .
   868 ;;		 -> led3(1), 
   869 ;; Auto vars:     Size  Location     Type
   870 ;;  pin_obj         1   15[COMRAM] struct .
   871 ;;  ret             1    0        unsigned char 
   872 ;; Return value:  Size  Location     Type
   873 ;;                  1    wreg      unsigned char 
   874 ;; Registers used:
   875 ;;		wreg, fsr2l, fsr2h, status,2, status,0, prodl, prodh, cstack
   876 ;; Tracked objects:
   877 ;;		On entry : 0/0
   878 ;;		On exit  : 0/0
   879 ;;		Unchanged: 0/0
   880 ;; Data sizes:     COMRAM   BANK0   BANK1   BANK2   BANK3   BANK4   BANK5   BANK6   BANK7   BANK8   BANK9  BANK10  BANK1
      +1  BANK12  BANK13  BANK14  BANK15
   881 ;;      Params:         1       0       0       0       0       0       0       0       0       0       0       0       
      +0       0       0       0       0
   882 ;;      Locals:         1       0       0       0       0       0       0       0       0       0       0       0       
      +0       0       0       0       0
   883 ;;      Temps:          1       0       0       0       0       0       0       0       0       0       0       0       
      +0       0       0       0       0
   884 ;;      Totals:         3       0       0       0       0       0       0       0       0       0       0       0       
      +0       0       0       0       0
   885 ;;Total ram usage:        3 bytes
   886 ;; Hardware stack levels used: 1
   887 ;; Hardware stack levels required when called: 5
   888 ;; This function calls:
   889 ;;		_gpio_pin_initialize
   890 ;; This function is called by:
   891 ;;		_main
   892 ;; This function uses a non-reentrant model
   893 ;;
   894                           
   895                           	psect	text5
   896   0015EC                     __ptext5:
   897                           	callstack 0
   898   0015EC                     _led_init:
   899                           	callstack 25
   900   0015EC                     
   901                           ;ECU_Layer/LED/ecu_led.c: 12:     if(((void*)0) == led){
   902   0015EC  505D               	movf	led_init@led^0,w,c
   903   0015EE  A4D8               	btfss	status,2,c
   904   0015F0  EFFC  F00A         	goto	u2321
   905   0015F4  EFFE  F00A         	goto	u2320
   906   0015F8                     u2321:
   907   0015F8  EF00  F00B         	goto	l280
   908   0015FC                     u2320:
   909   0015FC                     
   910                           ;ECU_Layer/LED/ecu_led.c: 14:     }else{
   911   0015FC  EF2A  F00B         	goto	l284
   912   001600                     l280:
   913                           
   914                           ;ECU_Layer/LED/ecu_led.c: 15:         pin_config_t pin_obj={.port=led->port_name,
   915   001600  C04F  F05F         	movff	led_init@F3053,led_init@pin_obj
   916   001604  505D               	movf	led_init@led^0,w,c
   917   001606  6ED9               	movwf	fsr2l,c
   918   001608  6ADA               	clrf	fsr2h,c
   919   00160A  50DF               	movf	223,w,c
   920   00160C  0B07               	andlw	7
   921   00160E  6E5E               	movwf	??_led_init^0,c
   922   001610  505F               	movf	led_init@pin_obj^0,w,c
   923   001612  185E               	xorwf	??_led_init^0,w,c
   924   001614  0BF8               	andlw	-8
   925   001616  185E               	xorwf	??_led_init^0,w,c
   926   001618  6E5F               	movwf	led_init@pin_obj^0,c
   927   00161A  505D               	movf	led_init@led^0,w,c
   928   00161C  6ED9               	movwf	fsr2l,c
   929   00161E  6ADA               	clrf	fsr2h,c
   930   001620  30DF               	rrcf	223,w,c
   931   001622  32E8               	rrcf	wreg,f,c
   932   001624  32E8               	rrcf	wreg,f,c
   933   001626  0B07               	andlw	7
   934   001628  6E5E               	movwf	??_led_init^0,c
   935   00162A  465E               	rlncf	??_led_init^0,f,c
   936   00162C  465E               	rlncf	??_led_init^0,f,c
   937   00162E  465E               	rlncf	??_led_init^0,f,c
   938   001630  505F               	movf	led_init@pin_obj^0,w,c
   939   001632  185E               	xorwf	??_led_init^0,w,c
   940   001634  0BC7               	andlw	-57
   941   001636  185E               	xorwf	??_led_init^0,w,c
   942   001638  6E5F               	movwf	led_init@pin_obj^0,c
   943   00163A  9C5F               	bcf	led_init@pin_obj^0,6,c
   944   00163C  505D               	movf	led_init@led^0,w,c
   945   00163E  6ED9               	movwf	fsr2l,c
   946   001640  6ADA               	clrf	fsr2h,c
   947   001642  ACDF               	btfss	indf2,6,c
   948   001644  D002               	bra	u2335
   949   001646  8E5F               	bsf	led_init@pin_obj^0,7,c
   950   001648  D001               	bra	u2337
   951   00164A                     u2335:
   952   00164A  9E5F               	bcf	led_init@pin_obj^0,7,c
   953   00164C                     u2337:
   954   00164C  0E5F               	movlw	low led_init@pin_obj
   955   00164E  6E5B               	movwf	gpio_pin_initialize@pin_config^0,c
   956   001650  EC54  F00B         	call	_gpio_pin_initialize	;wreg free
   957   001654                     l284:
   958   001654  0012               	return		;funcret
   959   001656                     __end_of_led_init:
   960                           	callstack 0
   961                           
   962 ;; *************** function _gpio_pin_initialize *****************
   963 ;; Defined at:
   964 ;;		line 89 in file "MCAL_Layer/GPIO/hal_gpio.c"
   965 ;; Parameters:    Size  Location     Type
   966 ;;  pin_config      1   11[COMRAM] PTR const struct .
   967 ;;		 -> relayInit@pinObj(1), led_init@pin_obj(1), 
   968 ;; Auto vars:     Size  Location     Type
   969 ;;  ret             1   12[COMRAM] unsigned char 
   970 ;; Return value:  Size  Location     Type
   971 ;;                  1    wreg      unsigned char 
   972 ;; Registers used:
   973 ;;		wreg, fsr2l, fsr2h, status,2, status,0, prodl, prodh, cstack
   974 ;; Tracked objects:
   975 ;;		On entry : 0/0
   976 ;;		On exit  : 0/0
   977 ;;		Unchanged: 0/0
   978 ;; Data sizes:     COMRAM   BANK0   BANK1   BANK2   BANK3   BANK4   BANK5   BANK6   BANK7   BANK8   BANK9  BANK10  BANK1
      +1  BANK12  BANK13  BANK14  BANK15
   979 ;;      Params:         1       0       0       0       0       0       0       0       0       0       0       0       
      +0       0       0       0       0
   980 ;;      Locals:         1       0       0       0       0       0       0       0       0       0       0       0       
      +0       0       0       0       0
   981 ;;      Temps:          0       0       0       0       0       0       0       0       0       0       0       0       
      +0       0       0       0       0
   982 ;;      Totals:         2       0       0       0       0       0       0       0       0       0       0       0       
      +0       0       0       0       0
   983 ;;Total ram usage:        2 bytes
   984 ;; Hardware stack levels used: 1
   985 ;; Hardware stack levels required when called: 4
   986 ;; This function calls:
   987 ;;		_gpio_pin_direction_initialize
   988 ;;		_gpio_pin_write_logic
   989 ;; This function is called by:
   990 ;;		_led_init
   991 ;;		_segInit
   992 ;;		_dcMotor_intit
   993 ;;		_keypadInit
   994 ;;		_lcd_4bit_intialize
   995 ;;		_lcd_8bit_intialize
   996 ;;		_relayInit
   997 ;;		_interrupt_INTx_Pin_Init
   998 ;; This function uses a non-reentrant model
   999 ;;
  1000                           
  1001                           	psect	text6
  1002   0016A8                     __ptext6:
  1003                           	callstack 0
  1004   0016A8                     _gpio_pin_initialize:
  1005                           	callstack 25
  1006   0016A8                     
  1007                           ;MCAL_Layer/GPIO/hal_gpio.c: 89: STD_ReturnType gpio_pin_initialize(const pin_config_t *
      +                          pin_config);MCAL_Layer/GPIO/hal_gpio.c: 90: {;MCAL_Layer/GPIO/hal_gpio.c: 91:     STD_Re
      +                          turnType ret = (STD_ReturnType) 0x01;
  1008   0016A8  0E01               	movlw	1
  1009   0016AA  6E5C               	movwf	gpio_pin_initialize@ret^0,c
  1010                           
  1011                           ;MCAL_Layer/GPIO/hal_gpio.c: 92:     if(((void*)0) == pin_config){
  1012   0016AC  505B               	movf	gpio_pin_initialize@pin_config^0,w,c
  1013   0016AE  A4D8               	btfss	status,2,c
  1014   0016B0  EF5C  F00B         	goto	u2061
  1015   0016B4  EF5E  F00B         	goto	u2060
  1016   0016B8                     u2061:
  1017   0016B8  EF62  F00B         	goto	l3295
  1018   0016BC                     u2060:
  1019   0016BC                     
  1020                           ;MCAL_Layer/GPIO/hal_gpio.c: 93:         ret = (STD_ReturnType) 0x00;
  1021   0016BC  0E00               	movlw	0
  1022   0016BE  6E5C               	movwf	gpio_pin_initialize@ret^0,c
  1023                           
  1024                           ;MCAL_Layer/GPIO/hal_gpio.c: 94:     }
  1025   0016C0  EF71  F00B         	goto	l3297
  1026   0016C4                     l3295:
  1027                           
  1028                           ;MCAL_Layer/GPIO/hal_gpio.c: 96:        gpio_pin_direction_initialize(pin_config);
  1029   0016C4  C05B  F053         	movff	gpio_pin_initialize@pin_config,gpio_pin_direction_initialize@pin_config
  1030   0016C8  ECF6  F009         	call	_gpio_pin_direction_initialize	;wreg free
  1031                           
  1032                           ;MCAL_Layer/GPIO/hal_gpio.c: 97:        gpio_pin_write_logic(pin_config,pin_config->logi
      +                          c);
  1033   0016CC  C05B  F053         	movff	gpio_pin_initialize@pin_config,gpio_pin_write_logic@pin_config
  1034   0016D0  505B               	movf	gpio_pin_initialize@pin_config^0,w,c
  1035   0016D2  6ED9               	movwf	fsr2l,c
  1036   0016D4  6ADA               	clrf	fsr2h,c
  1037   0016D6  0E00               	movlw	0
  1038   0016D8  BEDF               	btfsc	indf2,7,c
  1039   0016DA  0E01               	movlw	1
  1040   0016DC  6E54               	movwf	gpio_pin_write_logic@logic^0,c
  1041   0016DE  EC6E  F009         	call	_gpio_pin_write_logic	;wreg free
  1042   0016E2                     l3297:
  1043                           
  1044                           ;MCAL_Layer/GPIO/hal_gpio.c: 99:     return ret;
  1045   0016E2  505C               	movf	gpio_pin_initialize@ret^0,w,c
  1046   0016E4  0012               	return		;funcret
  1047   0016E6                     __end_of_gpio_pin_initialize:
  1048                           	callstack 0
  1049                           
  1050 ;; *************** function _gpio_pin_write_logic *****************
  1051 ;; Defined at:
  1052 ;;		line 51 in file "MCAL_Layer/GPIO/hal_gpio.c"
  1053 ;; Parameters:    Size  Location     Type
  1054 ;;  pin_config      1    3[COMRAM] PTR struct .
  1055 ;;		 -> relayOFF@pinObj(1), relayON@pinObj(1), relayInit@pinObj(1), led_off@pin_obj(1), 
  1056 ;;		 -> led_on@pin_obj(1), led_init@pin_obj(1), 
  1057 ;;  logic           1    4[COMRAM] enum E2972
  1058 ;; Auto vars:     Size  Location     Type
  1059 ;;  ret             1   10[COMRAM] unsigned char 
  1060 ;; Return value:  Size  Location     Type
  1061 ;;                  1    wreg      unsigned char 
  1062 ;; Registers used:
  1063 ;;		wreg, fsr2l, fsr2h, status,2, status,0, prodl, prodh
  1064 ;; Tracked objects:
  1065 ;;		On entry : 0/0
  1066 ;;		On exit  : 0/0
  1067 ;;		Unchanged: 0/0
  1068 ;; Data sizes:     COMRAM   BANK0   BANK1   BANK2   BANK3   BANK4   BANK5   BANK6   BANK7   BANK8   BANK9  BANK10  BANK1
      +1  BANK12  BANK13  BANK14  BANK15
  1069 ;;      Params:         2       0       0       0       0       0       0       0       0       0       0       0       
      +0       0       0       0       0
  1070 ;;      Locals:         1       0       0       0       0       0       0       0       0       0       0       0       
      +0       0       0       0       0
  1071 ;;      Temps:          5       0       0       0       0       0       0       0       0       0       0       0       
      +0       0       0       0       0
  1072 ;;      Totals:         8       0       0       0       0       0       0       0       0       0       0       0       
      +0       0       0       0       0
  1073 ;;Total ram usage:        8 bytes
  1074 ;; Hardware stack levels used: 1
  1075 ;; Hardware stack levels required when called: 3
  1076 ;; This function calls:
  1077 ;;		Nothing
  1078 ;; This function is called by:
  1079 ;;		_gpio_pin_initialize
  1080 ;;		_segWrite
  1081 ;;		_dcMotor_Move_right
  1082 ;;		_dcMotor_Move_left
  1083 ;;		_dcMotor_Stop
  1084 ;;		_keypadReadValue
  1085 ;;		_lcd_4bit_send_command
  1086 ;;		_lcd_4bit_send_char_data
  1087 ;;		_lcd_8bit_send_command
  1088 ;;		_lcd_8bit_send_char_data
  1089 ;;		_lcd_4bit_send_data
  1090 ;;		_lcd_4bit_blink_en
  1091 ;;		_lcd_8bit_send_data
  1092 ;;		_lcd_8bit_blink_en
  1093 ;;		_led_on
  1094 ;;		_led_off
  1095 ;;		_relayON
  1096 ;;		_relayOFF
  1097 ;; This function uses a non-reentrant model
  1098 ;;
  1099                           
  1100                           	psect	text7
  1101   0012DC                     __ptext7:
  1102                           	callstack 0
  1103   0012DC                     _gpio_pin_write_logic:
  1104                           	callstack 25
  1105   0012DC                     
  1106                           ;MCAL_Layer/GPIO/hal_gpio.c: 51: STD_ReturnType gpio_pin_write_logic(pin_config_t *pin_c
      +                          onfig,logic_t logic);MCAL_Layer/GPIO/hal_gpio.c: 52: {;MCAL_Layer/GPIO/hal_gpio.c: 53:  
      +                             STD_ReturnType ret = (STD_ReturnType) 0x01;
  1107   0012DC  0E01               	movlw	1
  1108   0012DE  6E5A               	movwf	gpio_pin_write_logic@ret^0,c
  1109                           
  1110                           ;MCAL_Layer/GPIO/hal_gpio.c: 54:     if(((void*)0) == pin_config){
  1111   0012E0  5053               	movf	gpio_pin_write_logic@pin_config^0,w,c
  1112   0012E2  A4D8               	btfss	status,2,c
  1113   0012E4  EF76  F009         	goto	u1961
  1114   0012E8  EF78  F009         	goto	u1960
  1115   0012EC                     u1961:
  1116   0012EC  EFDF  F009         	goto	l3259
  1117   0012F0                     u1960:
  1118   0012F0                     l3245:
  1119                           
  1120                           ;MCAL_Layer/GPIO/hal_gpio.c: 55:         ret = (STD_ReturnType) 0x00;
  1121   0012F0  0E00               	movlw	0
  1122   0012F2  6E5A               	movwf	gpio_pin_write_logic@ret^0,c
  1123                           
  1124                           ;MCAL_Layer/GPIO/hal_gpio.c: 56:     }
  1125   0012F4  EFF4  F009         	goto	l3261
  1126   0012F8                     l3247:
  1127                           
  1128                           ;MCAL_Layer/GPIO/hal_gpio.c: 60:               (*(lat_regs[pin_config->port]) &= ~(0x01 
      +                          << pin_config->pin));
  1129   0012F8  5053               	movf	gpio_pin_write_logic@pin_config^0,w,c
  1130   0012FA  6ED9               	movwf	fsr2l,c
  1131   0012FC  6ADA               	clrf	fsr2h,c
  1132   0012FE  30DF               	rrcf	223,w,c
  1133   001300  32E8               	rrcf	wreg,f,c
  1134   001302  32E8               	rrcf	wreg,f,c
  1135   001304  0B07               	andlw	7
  1136   001306  6E55               	movwf	??_gpio_pin_write_logic^0,c
  1137   001308  0E01               	movlw	1
  1138   00130A  6E56               	movwf	(??_gpio_pin_write_logic+1)^0,c
  1139   00130C  2A55               	incf	??_gpio_pin_write_logic^0,f,c
  1140   00130E  EF8B  F009         	goto	u1974
  1141   001312                     u1975:
  1142   001312  90D8               	bcf	status,0,c
  1143   001314  3656               	rlcf	(??_gpio_pin_write_logic+1)^0,f,c
  1144   001316                     u1974:
  1145   001316  2E55               	decfsz	??_gpio_pin_write_logic^0,f,c
  1146   001318  EF89  F009         	goto	u1975
  1147   00131C  5056               	movf	(??_gpio_pin_write_logic+1)^0,w,c
  1148   00131E  0AFF               	xorlw	255
  1149   001320  6E57               	movwf	(??_gpio_pin_write_logic+2)^0,c
  1150   001322  5053               	movf	gpio_pin_write_logic@pin_config^0,w,c
  1151   001324  6ED9               	movwf	fsr2l,c
  1152   001326  6ADA               	clrf	fsr2h,c
  1153   001328  50DF               	movf	223,w,c
  1154   00132A  0B07               	andlw	7
  1155   00132C  0D02               	mullw	2
  1156   00132E  50F3               	movf	243,w,c
  1157   001330  0F0B               	addlw	low _lat_regs
  1158   001332  6ED9               	movwf	fsr2l,c
  1159   001334  6ADA               	clrf	fsr2h,c
  1160   001336  CFDE F058          	movff	postinc2,??_gpio_pin_write_logic+3
  1161   00133A  CFDD F059          	movff	postdec2,??_gpio_pin_write_logic+4
  1162   00133E  C058  FFD9         	movff	??_gpio_pin_write_logic+3,fsr2l
  1163   001342  C059  FFDA         	movff	??_gpio_pin_write_logic+4,fsr2h
  1164   001346  5057               	movf	(??_gpio_pin_write_logic+2)^0,w,c
  1165   001348  16DF               	andwf	indf2,f,c
  1166   00134A                     
  1167                           ;MCAL_Layer/GPIO/hal_gpio.c: 61:               pin_config->logic = logic;
  1168   00134A  5053               	movf	gpio_pin_write_logic@pin_config^0,w,c
  1169   00134C  6ED9               	movwf	fsr2l,c
  1170   00134E  6ADA               	clrf	fsr2h,c
  1171   001350  B054               	btfsc	gpio_pin_write_logic@logic^0,0,c
  1172   001352  D002               	bra	u1985
  1173   001354  9EDF               	bcf	indf2,7,c
  1174   001356  D001               	bra	u1986
  1175   001358                     u1985:
  1176   001358  8EDF               	bsf	indf2,7,c
  1177   00135A                     u1986:
  1178                           
  1179                           ;MCAL_Layer/GPIO/hal_gpio.c: 62:               break;
  1180   00135A  EFF4  F009         	goto	l3261
  1181   00135E                     l3251:
  1182                           
  1183                           ;MCAL_Layer/GPIO/hal_gpio.c: 65:               (*(lat_regs[pin_config->port]) |= (0x01 <
      +                          < pin_config->pin));
  1184   00135E  5053               	movf	gpio_pin_write_logic@pin_config^0,w,c
  1185   001360  6ED9               	movwf	fsr2l,c
  1186   001362  6ADA               	clrf	fsr2h,c
  1187   001364  30DF               	rrcf	223,w,c
  1188   001366  32E8               	rrcf	wreg,f,c
  1189   001368  32E8               	rrcf	wreg,f,c
  1190   00136A  0B07               	andlw	7
  1191   00136C  6E55               	movwf	??_gpio_pin_write_logic^0,c
  1192   00136E  0E01               	movlw	1
  1193   001370  6E56               	movwf	(??_gpio_pin_write_logic+1)^0,c
  1194   001372  2A55               	incf	??_gpio_pin_write_logic^0,f,c
  1195   001374  EFBE  F009         	goto	u1994
  1196   001378                     u1995:
  1197   001378  90D8               	bcf	status,0,c
  1198   00137A  3656               	rlcf	(??_gpio_pin_write_logic+1)^0,f,c
  1199   00137C                     u1994:
  1200   00137C  2E55               	decfsz	??_gpio_pin_write_logic^0,f,c
  1201   00137E  EFBC  F009         	goto	u1995
  1202   001382  5053               	movf	gpio_pin_write_logic@pin_config^0,w,c
  1203   001384  6ED9               	movwf	fsr2l,c
  1204   001386  6ADA               	clrf	fsr2h,c
  1205   001388  50DF               	movf	223,w,c
  1206   00138A  0B07               	andlw	7
  1207   00138C  0D02               	mullw	2
  1208   00138E  50F3               	movf	243,w,c
  1209   001390  0F0B               	addlw	low _lat_regs
  1210   001392  6ED9               	movwf	fsr2l,c
  1211   001394  6ADA               	clrf	fsr2h,c
  1212   001396  CFDE F057          	movff	postinc2,??_gpio_pin_write_logic+2
  1213   00139A  CFDD F058          	movff	postdec2,??_gpio_pin_write_logic+3
  1214   00139E  C057  FFD9         	movff	??_gpio_pin_write_logic+2,fsr2l
  1215   0013A2  C058  FFDA         	movff	??_gpio_pin_write_logic+3,fsr2h
  1216   0013A6  5056               	movf	(??_gpio_pin_write_logic+1)^0,w,c
  1217   0013A8  12DF               	iorwf	indf2,f,c
  1218   0013AA                     
  1219                           ;MCAL_Layer/GPIO/hal_gpio.c: 66:               pin_config->logic = logic;
  1220   0013AA  5053               	movf	gpio_pin_write_logic@pin_config^0,w,c
  1221   0013AC  6ED9               	movwf	fsr2l,c
  1222   0013AE  6ADA               	clrf	fsr2h,c
  1223   0013B0  B054               	btfsc	gpio_pin_write_logic@logic^0,0,c
  1224   0013B2  D002               	bra	u2005
  1225   0013B4  9EDF               	bcf	indf2,7,c
  1226   0013B6  D001               	bra	u2006
  1227   0013B8                     u2005:
  1228   0013B8  8EDF               	bsf	indf2,7,c
  1229   0013BA                     u2006:
  1230                           
  1231                           ;MCAL_Layer/GPIO/hal_gpio.c: 67:               break;
  1232   0013BA  EFF4  F009         	goto	l3261
  1233   0013BE                     l3259:
  1234   0013BE  5054               	movf	gpio_pin_write_logic@logic^0,w,c
  1235   0013C0  6E55               	movwf	??_gpio_pin_write_logic^0,c
  1236   0013C2  6A56               	clrf	(??_gpio_pin_write_logic+1)^0,c
  1237                           
  1238                           ; Switch on 2 bytes has been partitioned into a top level switch of size 1, and 1 sub-sw
      +                          itches
  1239                           ; Switch size 1, requested type "simple"
  1240                           ; Number of cases is 1, Range of values is 0 to 0
  1241                           ; switch strategies available:
  1242                           ; Name         Instructions Cycles
  1243                           ; simple_byte            4     3 (average)
  1244                           ;	Chosen strategy is simple_byte
  1245   0013C4  5056               	movf	(??_gpio_pin_write_logic+1)^0,w,c
  1246   0013C6  0A00               	xorlw	0	; case 0
  1247   0013C8  B4D8               	btfsc	status,2,c
  1248   0013CA  EFE9  F009         	goto	l4089
  1249   0013CE  EF78  F009         	goto	l3245
  1250   0013D2                     l4089:
  1251                           
  1252                           ; Switch size 1, requested type "simple"
  1253                           ; Number of cases is 2, Range of values is 0 to 1
  1254                           ; switch strategies available:
  1255                           ; Name         Instructions Cycles
  1256                           ; simple_byte            7     4 (average)
  1257                           ;	Chosen strategy is simple_byte
  1258   0013D2  5055               	movf	??_gpio_pin_write_logic^0,w,c
  1259   0013D4  0A00               	xorlw	0	; case 0
  1260   0013D6  B4D8               	btfsc	status,2,c
  1261   0013D8  EF7C  F009         	goto	l3247
  1262   0013DC  0A01               	xorlw	1	; case 1
  1263   0013DE  B4D8               	btfsc	status,2,c
  1264   0013E0  EFAF  F009         	goto	l3251
  1265   0013E4  EF78  F009         	goto	l3245
  1266   0013E8                     l3261:
  1267                           
  1268                           ;MCAL_Layer/GPIO/hal_gpio.c: 74:     return ret;
  1269   0013E8  505A               	movf	gpio_pin_write_logic@ret^0,w,c
  1270   0013EA  0012               	return		;funcret
  1271   0013EC                     __end_of_gpio_pin_write_logic:
  1272                           	callstack 0
  1273                           
  1274 ;; *************** function _gpio_pin_direction_initialize *****************
  1275 ;; Defined at:
  1276 ;;		line 18 in file "MCAL_Layer/GPIO/hal_gpio.c"
  1277 ;; Parameters:    Size  Location     Type
  1278 ;;  pin_config      1    3[COMRAM] PTR const struct .
  1279 ;;		 -> relayInit@pinObj(1), led_init@pin_obj(1), 
  1280 ;; Auto vars:     Size  Location     Type
  1281 ;;  ret             1    9[COMRAM] unsigned char 
  1282 ;; Return value:  Size  Location     Type
  1283 ;;                  1    wreg      unsigned char 
  1284 ;; Registers used:
  1285 ;;		wreg, fsr2l, fsr2h, status,2, status,0, prodl, prodh
  1286 ;; Tracked objects:
  1287 ;;		On entry : 0/0
  1288 ;;		On exit  : 0/0
  1289 ;;		Unchanged: 0/0
  1290 ;; Data sizes:     COMRAM   BANK0   BANK1   BANK2   BANK3   BANK4   BANK5   BANK6   BANK7   BANK8   BANK9  BANK10  BANK1
      +1  BANK12  BANK13  BANK14  BANK15
  1291 ;;      Params:         1       0       0       0       0       0       0       0       0       0       0       0       
      +0       0       0       0       0
  1292 ;;      Locals:         1       0       0       0       0       0       0       0       0       0       0       0       
      +0       0       0       0       0
  1293 ;;      Temps:          5       0       0       0       0       0       0       0       0       0       0       0       
      +0       0       0       0       0
  1294 ;;      Totals:         7       0       0       0       0       0       0       0       0       0       0       0       
      +0       0       0       0       0
  1295 ;;Total ram usage:        7 bytes
  1296 ;; Hardware stack levels used: 1
  1297 ;; Hardware stack levels required when called: 3
  1298 ;; This function calls:
  1299 ;;		Nothing
  1300 ;; This function is called by:
  1301 ;;		_gpio_pin_initialize
  1302 ;;		_btn_init
  1303 ;;		_Interrupt_RBx_Init
  1304 ;; This function uses a non-reentrant model
  1305 ;;
  1306                           
  1307                           	psect	text8
  1308   0013EC                     __ptext8:
  1309                           	callstack 0
  1310   0013EC                     _gpio_pin_direction_initialize:
  1311                           	callstack 25
  1312   0013EC                     
  1313                           ;MCAL_Layer/GPIO/hal_gpio.c: 18: STD_ReturnType gpio_pin_direction_initialize(const pin_
      +                          config_t * pin_config);MCAL_Layer/GPIO/hal_gpio.c: 19: {;MCAL_Layer/GPIO/hal_gpio.c: 20:
      +                               STD_ReturnType ret = (STD_ReturnType) 0x01;
  1314   0013EC  0E01               	movlw	1
  1315   0013EE  6E59               	movwf	gpio_pin_direction_initialize@ret^0,c
  1316                           
  1317                           ;MCAL_Layer/GPIO/hal_gpio.c: 21:     if(((void*)0) == pin_config){
  1318   0013F0  5053               	movf	gpio_pin_direction_initialize@pin_config^0,w,c
  1319   0013F2  A4D8               	btfss	status,2,c
  1320   0013F4  EFFE  F009         	goto	u2011
  1321   0013F8  EF00  F00A         	goto	u2010
  1322   0013FC                     u2011:
  1323   0013FC  EF57  F00A         	goto	l3281
  1324   001400                     u2010:
  1325   001400                     l3271:
  1326                           
  1327                           ;MCAL_Layer/GPIO/hal_gpio.c: 22:         ret = (STD_ReturnType) 0x00;
  1328   001400  0E00               	movlw	0
  1329   001402  6E59               	movwf	gpio_pin_direction_initialize@ret^0,c
  1330                           
  1331                           ;MCAL_Layer/GPIO/hal_gpio.c: 23:     }
  1332   001404  EF77  F00A         	goto	l3283
  1333   001408                     l3273:
  1334                           
  1335                           ;MCAL_Layer/GPIO/hal_gpio.c: 27:               (*(tris_regs[pin_config->port]) &= ~(0x01
      +                           << pin_config->pin));
  1336   001408  5053               	movf	gpio_pin_direction_initialize@pin_config^0,w,c
  1337   00140A  6ED9               	movwf	fsr2l,c
  1338   00140C  6ADA               	clrf	fsr2h,c
  1339   00140E  30DF               	rrcf	223,w,c
  1340   001410  32E8               	rrcf	wreg,f,c
  1341   001412  32E8               	rrcf	wreg,f,c
  1342   001414  0B07               	andlw	7
  1343   001416  6E54               	movwf	??_gpio_pin_direction_initialize^0,c
  1344   001418  0E01               	movlw	1
  1345   00141A  6E55               	movwf	(??_gpio_pin_direction_initialize+1)^0,c
  1346   00141C  2A54               	incf	??_gpio_pin_direction_initialize^0,f,c
  1347   00141E  EF13  F00A         	goto	u2024
  1348   001422                     u2025:
  1349   001422  90D8               	bcf	status,0,c
  1350   001424  3655               	rlcf	(??_gpio_pin_direction_initialize+1)^0,f,c
  1351   001426                     u2024:
  1352   001426  2E54               	decfsz	??_gpio_pin_direction_initialize^0,f,c
  1353   001428  EF11  F00A         	goto	u2025
  1354   00142C  5055               	movf	(??_gpio_pin_direction_initialize+1)^0,w,c
  1355   00142E  0AFF               	xorlw	255
  1356   001430  6E56               	movwf	(??_gpio_pin_direction_initialize+2)^0,c
  1357   001432  5053               	movf	gpio_pin_direction_initialize@pin_config^0,w,c
  1358   001434  6ED9               	movwf	fsr2l,c
  1359   001436  6ADA               	clrf	fsr2h,c
  1360   001438  50DF               	movf	223,w,c
  1361   00143A  0B07               	andlw	7
  1362   00143C  0D02               	mullw	2
  1363   00143E  50F3               	movf	243,w,c
  1364   001440  0F15               	addlw	low _tris_regs
  1365   001442  6ED9               	movwf	fsr2l,c
  1366   001444  6ADA               	clrf	fsr2h,c
  1367   001446  CFDE F057          	movff	postinc2,??_gpio_pin_direction_initialize+3
  1368   00144A  CFDD F058          	movff	postdec2,??_gpio_pin_direction_initialize+4
  1369   00144E  C057  FFD9         	movff	??_gpio_pin_direction_initialize+3,fsr2l
  1370   001452  C058  FFDA         	movff	??_gpio_pin_direction_initialize+4,fsr2h
  1371   001456  5056               	movf	(??_gpio_pin_direction_initialize+2)^0,w,c
  1372   001458  16DF               	andwf	indf2,f,c
  1373                           
  1374                           ;MCAL_Layer/GPIO/hal_gpio.c: 28:               break;
  1375   00145A  EF77  F00A         	goto	l3283
  1376   00145E                     l3275:
  1377                           
  1378                           ;MCAL_Layer/GPIO/hal_gpio.c: 31:               (*(tris_regs[pin_config->port]) |= (0x01 
      +                          << pin_config->pin));
  1379   00145E  5053               	movf	gpio_pin_direction_initialize@pin_config^0,w,c
  1380   001460  6ED9               	movwf	fsr2l,c
  1381   001462  6ADA               	clrf	fsr2h,c
  1382   001464  30DF               	rrcf	223,w,c
  1383   001466  32E8               	rrcf	wreg,f,c
  1384   001468  32E8               	rrcf	wreg,f,c
  1385   00146A  0B07               	andlw	7
  1386   00146C  6E54               	movwf	??_gpio_pin_direction_initialize^0,c
  1387   00146E  0E01               	movlw	1
  1388   001470  6E55               	movwf	(??_gpio_pin_direction_initialize+1)^0,c
  1389   001472  2A54               	incf	??_gpio_pin_direction_initialize^0,f,c
  1390   001474  EF3E  F00A         	goto	u2034
  1391   001478                     u2035:
  1392   001478  90D8               	bcf	status,0,c
  1393   00147A  3655               	rlcf	(??_gpio_pin_direction_initialize+1)^0,f,c
  1394   00147C                     u2034:
  1395   00147C  2E54               	decfsz	??_gpio_pin_direction_initialize^0,f,c
  1396   00147E  EF3C  F00A         	goto	u2035
  1397   001482  5053               	movf	gpio_pin_direction_initialize@pin_config^0,w,c
  1398   001484  6ED9               	movwf	fsr2l,c
  1399   001486  6ADA               	clrf	fsr2h,c
  1400   001488  50DF               	movf	223,w,c
  1401   00148A  0B07               	andlw	7
  1402   00148C  0D02               	mullw	2
  1403   00148E  50F3               	movf	243,w,c
  1404   001490  0F15               	addlw	low _tris_regs
  1405   001492  6ED9               	movwf	fsr2l,c
  1406   001494  6ADA               	clrf	fsr2h,c
  1407   001496  CFDE F056          	movff	postinc2,??_gpio_pin_direction_initialize+2
  1408   00149A  CFDD F057          	movff	postdec2,??_gpio_pin_direction_initialize+3
  1409   00149E  C056  FFD9         	movff	??_gpio_pin_direction_initialize+2,fsr2l
  1410   0014A2  C057  FFDA         	movff	??_gpio_pin_direction_initialize+3,fsr2h
  1411   0014A6  5055               	movf	(??_gpio_pin_direction_initialize+1)^0,w,c
  1412   0014A8  12DF               	iorwf	indf2,f,c
  1413                           
  1414                           ;MCAL_Layer/GPIO/hal_gpio.c: 32:               break;
  1415   0014AA  EF77  F00A         	goto	l3283
  1416   0014AE                     l3281:
  1417   0014AE  5053               	movf	gpio_pin_direction_initialize@pin_config^0,w,c
  1418   0014B0  6ED9               	movwf	fsr2l,c
  1419   0014B2  6ADA               	clrf	fsr2h,c
  1420   0014B4  BCDF               	btfsc	indf2,6,c
  1421   0014B6  EF5F  F00A         	goto	u2041
  1422   0014BA  EF62  F00A         	goto	u2040
  1423   0014BE                     u2041:
  1424   0014BE  0E01               	movlw	1
  1425   0014C0  EF63  F00A         	goto	u2050
  1426   0014C4                     u2040:
  1427   0014C4  0E00               	movlw	0
  1428   0014C6                     u2050:
  1429   0014C6  6E54               	movwf	??_gpio_pin_direction_initialize^0,c
  1430   0014C8  6A55               	clrf	(??_gpio_pin_direction_initialize+1)^0,c
  1431                           
  1432                           ; Switch on 2 bytes has been partitioned into a top level switch of size 1, and 1 sub-sw
      +                          itches
  1433                           ; Switch size 1, requested type "simple"
  1434                           ; Number of cases is 1, Range of values is 0 to 0
  1435                           ; switch strategies available:
  1436                           ; Name         Instructions Cycles
  1437                           ; simple_byte            4     3 (average)
  1438                           ;	Chosen strategy is simple_byte
  1439   0014CA  5055               	movf	(??_gpio_pin_direction_initialize+1)^0,w,c
  1440   0014CC  0A00               	xorlw	0	; case 0
  1441   0014CE  B4D8               	btfsc	status,2,c
  1442   0014D0  EF6C  F00A         	goto	l4091
  1443   0014D4  EF00  F00A         	goto	l3271
  1444   0014D8                     l4091:
  1445                           
  1446                           ; Switch size 1, requested type "simple"
  1447                           ; Number of cases is 2, Range of values is 0 to 1
  1448                           ; switch strategies available:
  1449                           ; Name         Instructions Cycles
  1450                           ; simple_byte            7     4 (average)
  1451                           ;	Chosen strategy is simple_byte
  1452   0014D8  5054               	movf	??_gpio_pin_direction_initialize^0,w,c
  1453   0014DA  0A00               	xorlw	0	; case 0
  1454   0014DC  B4D8               	btfsc	status,2,c
  1455   0014DE  EF04  F00A         	goto	l3273
  1456   0014E2  0A01               	xorlw	1	; case 1
  1457   0014E4  B4D8               	btfsc	status,2,c
  1458   0014E6  EF2F  F00A         	goto	l3275
  1459   0014EA  EF00  F00A         	goto	l3271
  1460   0014EE                     l3283:
  1461                           
  1462                           ;MCAL_Layer/GPIO/hal_gpio.c: 38:     return ret;
  1463   0014EE  5059               	movf	gpio_pin_direction_initialize@ret^0,w,c
  1464   0014F0  0012               	return		;funcret
  1465   0014F2                     __end_of_gpio_pin_direction_initialize:
  1466                           	callstack 0
  1467                           
  1468 ;; *************** function _InterruptManager *****************
  1469 ;; Defined at:
  1470 ;;		line 39 in file "C:/Users/Om562/MPLABXProjects/PIC18/MCAL_Layer/Interrupt/mcal_interrupt_manager.c"
  1471 ;; Parameters:    Size  Location     Type
  1472 ;;		None
  1473 ;; Auto vars:     Size  Location     Type
  1474 ;;		None
  1475 ;; Return value:  Size  Location     Type
  1476 ;;                  1    wreg      void 
  1477 ;; Registers used:
  1478 ;;		wreg, status,2, status,0, pcl, pclath, pclatu, tosl, cstack
  1479 ;; Tracked objects:
  1480 ;;		On entry : 0/0
  1481 ;;		On exit  : 0/0
  1482 ;;		Unchanged: 0/0
  1483 ;; Data sizes:     COMRAM   BANK0   BANK1   BANK2   BANK3   BANK4   BANK5   BANK6   BANK7   BANK8   BANK9  BANK10  BANK1
      +1  BANK12  BANK13  BANK14  BANK15
  1484 ;;      Params:         0       0       0       0       0       0       0       0       0       0       0       0       
      +0       0       0       0       0
  1485 ;;      Locals:         0       0       0       0       0       0       0       0       0       0       0       0       
      +0       0       0       0       0
  1486 ;;      Temps:          2       0       0       0       0       0       0       0       0       0       0       0       
      +0       0       0       0       0
  1487 ;;      Totals:         2       0       0       0       0       0       0       0       0       0       0       0       
      +0       0       0       0       0
  1488 ;;Total ram usage:        2 bytes
  1489 ;; Hardware stack levels used: 1
  1490 ;; Hardware stack levels required when called: 2
  1491 ;; This function calls:
  1492 ;;		_ADC_ISR
  1493 ;;		_INT0_ISR
  1494 ;;		_INT1_ISR
  1495 ;;		_INT2_ISR
  1496 ;;		_RB4_ISR
  1497 ;;		_RB5_ISR
  1498 ;;		_RB6_ISR
  1499 ;;		_RB7_ISR
  1500 ;;		_TMR0_ISR
  1501 ;; This function is called by:
  1502 ;;		Interrupt level 2
  1503 ;; This function uses a non-reentrant model
  1504 ;;
  1505                           
  1506                           	psect	intcode
  1507   000008                     __pintcode:
  1508                           	callstack 0
  1509   000008                     _InterruptManager:
  1510                           	callstack 25
  1511                           
  1512                           ;incstack = 0
  1513   000008  8260               	bsf	int$flags,1,c	;set compiler interrupt flag (level 2)
  1514   00000A  ED03  F008         	call	int_func,f	;refresh shadow registers
  1515                           
  1516                           	psect	intcode_body
  1517   001006                     __pintcode_body:
  1518                           	callstack 25
  1519   001006                     int_func:
  1520                           	callstack 25
  1521   001006  0006               	pop		; remove dummy address from shadow register refresh
  1522   001008  CFFA F051          	movff	pclath,??_InterruptManager
  1523   00100C  CFFB F052          	movff	pclatu,??_InterruptManager+1
  1524   001010                     
  1525                           ;C:/Users/Om562/MPLABXProjects/PIC18/MCAL_Layer/Interrupt/mcal_interrupt_manager.c: 43: 
      +                           if ((INTCONbits.INT0IE == 1) && (INTCONbits.INT0IF == 1)) {
  1526   001010  A8F2               	btfss	242,4,c	;volatile
  1527   001012  EF0D  F008         	goto	i2u150_41
  1528   001016  EF0F  F008         	goto	i2u150_40
  1529   00101A                     i2u150_41:
  1530   00101A  EF18  F008         	goto	i2l3075
  1531   00101E                     i2u150_40:
  1532   00101E  A2F2               	btfss	242,1,c	;volatile
  1533   001020  EF14  F008         	goto	i2u151_41
  1534   001024  EF16  F008         	goto	i2u151_40
  1535   001028                     i2u151_41:
  1536   001028  EF18  F008         	goto	i2l3075
  1537   00102C                     i2u151_40:
  1538   00102C                     
  1539                           ;C:/Users/Om562/MPLABXProjects/PIC18/MCAL_Layer/Interrupt/mcal_interrupt_manager.c: 44: 
      +                            INT0_ISR();
  1540   00102C  ECF8  F00B         	call	_INT0_ISR	;wreg free
  1541   001030                     i2l3075:
  1542                           
  1543                           ;C:/Users/Om562/MPLABXProjects/PIC18/MCAL_Layer/Interrupt/mcal_interrupt_manager.c: 46: 
      +                           if ((INTCON3bits.INT1E == 1) && (INTCON3bits.INT1IF == 1)) {
  1544   001030  A6F0               	btfss	240,3,c	;volatile
  1545   001032  EF1D  F008         	goto	i2u152_41
  1546   001036  EF1F  F008         	goto	i2u152_40
  1547   00103A                     i2u152_41:
  1548   00103A  EF28  F008         	goto	i2l3081
  1549   00103E                     i2u152_40:
  1550   00103E  A0F0               	btfss	240,0,c	;volatile
  1551   001040  EF24  F008         	goto	i2u153_41
  1552   001044  EF26  F008         	goto	i2u153_40
  1553   001048                     i2u153_41:
  1554   001048  EF28  F008         	goto	i2l3081
  1555   00104C                     i2u153_40:
  1556   00104C                     
  1557                           ;C:/Users/Om562/MPLABXProjects/PIC18/MCAL_Layer/Interrupt/mcal_interrupt_manager.c: 47: 
      +                            INT1_ISR();
  1558   00104C  ECF6  F00B         	call	_INT1_ISR	;wreg free
  1559   001050                     i2l3081:
  1560                           
  1561                           ;C:/Users/Om562/MPLABXProjects/PIC18/MCAL_Layer/Interrupt/mcal_interrupt_manager.c: 49: 
      +                           if ((INTCON3bits.INT2IE == 1) && (INTCON3bits.INT2IF == 1)) {
  1562   001050  A8F0               	btfss	240,4,c	;volatile
  1563   001052  EF2D  F008         	goto	i2u154_41
  1564   001056  EF2F  F008         	goto	i2u154_40
  1565   00105A                     i2u154_41:
  1566   00105A  EF38  F008         	goto	i2l3087
  1567   00105E                     i2u154_40:
  1568   00105E  A2F0               	btfss	240,1,c	;volatile
  1569   001060  EF34  F008         	goto	i2u155_41
  1570   001064  EF36  F008         	goto	i2u155_40
  1571   001068                     i2u155_41:
  1572   001068  EF38  F008         	goto	i2l3087
  1573   00106C                     i2u155_40:
  1574   00106C                     
  1575                           ;C:/Users/Om562/MPLABXProjects/PIC18/MCAL_Layer/Interrupt/mcal_interrupt_manager.c: 50: 
      +                            INT2_ISR();
  1576   00106C  ECF4  F00B         	call	_INT2_ISR	;wreg free
  1577   001070                     i2l3087:
  1578                           
  1579                           ;C:/Users/Om562/MPLABXProjects/PIC18/MCAL_Layer/Interrupt/mcal_interrupt_manager.c: 57: 
      +                           if ((INTCONbits.RBIE == 1) && (INTCONbits.RBIF == 1) && (PORTBbits.RB4 == 1) &&(RB4_Fla
      +                          g == 1)) {
  1580   001070  A6F2               	btfss	242,3,c	;volatile
  1581   001072  EF3D  F008         	goto	i2u156_41
  1582   001076  EF3F  F008         	goto	i2u156_40
  1583   00107A                     i2u156_41:
  1584   00107A  EF5A  F008         	goto	i2l3099
  1585   00107E                     i2u156_40:
  1586   00107E  A0F2               	btfss	242,0,c	;volatile
  1587   001080  EF44  F008         	goto	i2u157_41
  1588   001084  EF46  F008         	goto	i2u157_40
  1589   001088                     i2u157_41:
  1590   001088  EF5A  F008         	goto	i2l3099
  1591   00108C                     i2u157_40:
  1592   00108C  A881               	btfss	129,4,c	;volatile
  1593   00108E  EF4B  F008         	goto	i2u158_41
  1594   001092  EF4D  F008         	goto	i2u158_40
  1595   001096                     i2u158_41:
  1596   001096  EF5A  F008         	goto	i2l3099
  1597   00109A                     i2u158_40:
  1598   00109A  0422               	decf	_RB4_Flag^0,w,c
  1599   00109C  A4D8               	btfss	status,2,c
  1600   00109E  EF53  F008         	goto	i2u159_41
  1601   0010A2  EF55  F008         	goto	i2u159_40
  1602   0010A6                     i2u159_41:
  1603   0010A6  EF5A  F008         	goto	i2l3099
  1604   0010AA                     i2u159_40:
  1605   0010AA                     
  1606                           ;C:/Users/Om562/MPLABXProjects/PIC18/MCAL_Layer/Interrupt/mcal_interrupt_manager.c: 58: 
      +                            RB4_Flag = 0;
  1607   0010AA  0E00               	movlw	0
  1608   0010AC  6E22               	movwf	_RB4_Flag^0,c
  1609   0010AE                     
  1610                           ;C:/Users/Om562/MPLABXProjects/PIC18/MCAL_Layer/Interrupt/mcal_interrupt_manager.c: 59: 
      +                            RB4_ISR(1);
  1611   0010AE  0E01               	movlw	1
  1612   0010B0  ECF2  F00B         	call	_RB4_ISR
  1613   0010B4                     i2l3099:
  1614                           
  1615                           ;C:/Users/Om562/MPLABXProjects/PIC18/MCAL_Layer/Interrupt/mcal_interrupt_manager.c: 61: 
      +                           if ((INTCONbits.RBIE == 1) && (INTCONbits.RBIF == 1) && (PORTBbits.RB4 == 0) &&(RB4_Fla
      +                          g == 0)) {
  1616   0010B4  A6F2               	btfss	242,3,c	;volatile
  1617   0010B6  EF5F  F008         	goto	i2u160_41
  1618   0010BA  EF61  F008         	goto	i2u160_40
  1619   0010BE                     i2u160_41:
  1620   0010BE  EF7C  F008         	goto	i2l3111
  1621   0010C2                     i2u160_40:
  1622   0010C2  A0F2               	btfss	242,0,c	;volatile
  1623   0010C4  EF66  F008         	goto	i2u161_41
  1624   0010C8  EF68  F008         	goto	i2u161_40
  1625   0010CC                     i2u161_41:
  1626   0010CC  EF7C  F008         	goto	i2l3111
  1627   0010D0                     i2u161_40:
  1628   0010D0  B881               	btfsc	129,4,c	;volatile
  1629   0010D2  EF6D  F008         	goto	i2u162_41
  1630   0010D6  EF6F  F008         	goto	i2u162_40
  1631   0010DA                     i2u162_41:
  1632   0010DA  EF7C  F008         	goto	i2l3111
  1633   0010DE                     i2u162_40:
  1634   0010DE  5022               	movf	_RB4_Flag^0,w,c
  1635   0010E0  A4D8               	btfss	status,2,c
  1636   0010E2  EF75  F008         	goto	i2u163_41
  1637   0010E6  EF77  F008         	goto	i2u163_40
  1638   0010EA                     i2u163_41:
  1639   0010EA  EF7C  F008         	goto	i2l3111
  1640   0010EE                     i2u163_40:
  1641   0010EE                     
  1642                           ;C:/Users/Om562/MPLABXProjects/PIC18/MCAL_Layer/Interrupt/mcal_interrupt_manager.c: 62: 
      +                            RB4_Flag = 1;
  1643   0010EE  0E01               	movlw	1
  1644   0010F0  6E22               	movwf	_RB4_Flag^0,c
  1645   0010F2                     
  1646                           ;C:/Users/Om562/MPLABXProjects/PIC18/MCAL_Layer/Interrupt/mcal_interrupt_manager.c: 63: 
      +                            RB4_ISR(0);
  1647   0010F2  0E00               	movlw	0
  1648   0010F4  ECF2  F00B         	call	_RB4_ISR
  1649   0010F8                     i2l3111:
  1650                           
  1651                           ;C:/Users/Om562/MPLABXProjects/PIC18/MCAL_Layer/Interrupt/mcal_interrupt_manager.c: 66: 
      +                           if ((INTCONbits.RBIE == 1) && (INTCONbits.RBIF == 1) && (PORTBbits.RB5 == 1) &&(RB5_Fla
      +                          g == 1)) {
  1652   0010F8  A6F2               	btfss	242,3,c	;volatile
  1653   0010FA  EF81  F008         	goto	i2u164_41
  1654   0010FE  EF83  F008         	goto	i2u164_40
  1655   001102                     i2u164_41:
  1656   001102  EF9E  F008         	goto	i2l3123
  1657   001106                     i2u164_40:
  1658   001106  A0F2               	btfss	242,0,c	;volatile
  1659   001108  EF88  F008         	goto	i2u165_41
  1660   00110C  EF8A  F008         	goto	i2u165_40
  1661   001110                     i2u165_41:
  1662   001110  EF9E  F008         	goto	i2l3123
  1663   001114                     i2u165_40:
  1664   001114  AA81               	btfss	129,5,c	;volatile
  1665   001116  EF8F  F008         	goto	i2u166_41
  1666   00111A  EF91  F008         	goto	i2u166_40
  1667   00111E                     i2u166_41:
  1668   00111E  EF9E  F008         	goto	i2l3123
  1669   001122                     i2u166_40:
  1670   001122  0421               	decf	_RB5_Flag^0,w,c
  1671   001124  A4D8               	btfss	status,2,c
  1672   001126  EF97  F008         	goto	i2u167_41
  1673   00112A  EF99  F008         	goto	i2u167_40
  1674   00112E                     i2u167_41:
  1675   00112E  EF9E  F008         	goto	i2l3123
  1676   001132                     i2u167_40:
  1677   001132                     
  1678                           ;C:/Users/Om562/MPLABXProjects/PIC18/MCAL_Layer/Interrupt/mcal_interrupt_manager.c: 67: 
      +                            RB5_Flag = 0;
  1679   001132  0E00               	movlw	0
  1680   001134  6E21               	movwf	_RB5_Flag^0,c
  1681   001136                     
  1682                           ;C:/Users/Om562/MPLABXProjects/PIC18/MCAL_Layer/Interrupt/mcal_interrupt_manager.c: 68: 
      +                            RB5_ISR(1);
  1683   001136  0E01               	movlw	1
  1684   001138  ECF0  F00B         	call	_RB5_ISR
  1685   00113C                     i2l3123:
  1686                           
  1687                           ;C:/Users/Om562/MPLABXProjects/PIC18/MCAL_Layer/Interrupt/mcal_interrupt_manager.c: 70: 
      +                           if ((INTCONbits.RBIE == 1) && (INTCONbits.RBIF == 1) && (PORTBbits.RB5 == 0) &&(RB5_Fla
      +                          g == 0)) {
  1688   00113C  A6F2               	btfss	242,3,c	;volatile
  1689   00113E  EFA3  F008         	goto	i2u168_41
  1690   001142  EFA5  F008         	goto	i2u168_40
  1691   001146                     i2u168_41:
  1692   001146  EFC0  F008         	goto	i2l3135
  1693   00114A                     i2u168_40:
  1694   00114A  A0F2               	btfss	242,0,c	;volatile
  1695   00114C  EFAA  F008         	goto	i2u169_41
  1696   001150  EFAC  F008         	goto	i2u169_40
  1697   001154                     i2u169_41:
  1698   001154  EFC0  F008         	goto	i2l3135
  1699   001158                     i2u169_40:
  1700   001158  BA81               	btfsc	129,5,c	;volatile
  1701   00115A  EFB1  F008         	goto	i2u170_41
  1702   00115E  EFB3  F008         	goto	i2u170_40
  1703   001162                     i2u170_41:
  1704   001162  EFC0  F008         	goto	i2l3135
  1705   001166                     i2u170_40:
  1706   001166  5021               	movf	_RB5_Flag^0,w,c
  1707   001168  A4D8               	btfss	status,2,c
  1708   00116A  EFB9  F008         	goto	i2u171_41
  1709   00116E  EFBB  F008         	goto	i2u171_40
  1710   001172                     i2u171_41:
  1711   001172  EFC0  F008         	goto	i2l3135
  1712   001176                     i2u171_40:
  1713   001176                     
  1714                           ;C:/Users/Om562/MPLABXProjects/PIC18/MCAL_Layer/Interrupt/mcal_interrupt_manager.c: 71: 
      +                            RB5_Flag = 1;
  1715   001176  0E01               	movlw	1
  1716   001178  6E21               	movwf	_RB5_Flag^0,c
  1717   00117A                     
  1718                           ;C:/Users/Om562/MPLABXProjects/PIC18/MCAL_Layer/Interrupt/mcal_interrupt_manager.c: 72: 
      +                            RB5_ISR(0);
  1719   00117A  0E00               	movlw	0
  1720   00117C  ECF0  F00B         	call	_RB5_ISR
  1721   001180                     i2l3135:
  1722                           
  1723                           ;C:/Users/Om562/MPLABXProjects/PIC18/MCAL_Layer/Interrupt/mcal_interrupt_manager.c: 76: 
      +                           if ((INTCONbits.RBIE == 1) && (INTCONbits.RBIF == 1) && (PORTBbits.RB6 == 1) &&(RB6_Fla
      +                          g == 1)) {
  1724   001180  A6F2               	btfss	242,3,c	;volatile
  1725   001182  EFC5  F008         	goto	i2u172_41
  1726   001186  EFC7  F008         	goto	i2u172_40
  1727   00118A                     i2u172_41:
  1728   00118A  EFE2  F008         	goto	i2l3147
  1729   00118E                     i2u172_40:
  1730   00118E  A0F2               	btfss	242,0,c	;volatile
  1731   001190  EFCC  F008         	goto	i2u173_41
  1732   001194  EFCE  F008         	goto	i2u173_40
  1733   001198                     i2u173_41:
  1734   001198  EFE2  F008         	goto	i2l3147
  1735   00119C                     i2u173_40:
  1736   00119C  AC81               	btfss	129,6,c	;volatile
  1737   00119E  EFD3  F008         	goto	i2u174_41
  1738   0011A2  EFD5  F008         	goto	i2u174_40
  1739   0011A6                     i2u174_41:
  1740   0011A6  EFE2  F008         	goto	i2l3147
  1741   0011AA                     i2u174_40:
  1742   0011AA  0420               	decf	_RB6_Flag^0,w,c
  1743   0011AC  A4D8               	btfss	status,2,c
  1744   0011AE  EFDB  F008         	goto	i2u175_41
  1745   0011B2  EFDD  F008         	goto	i2u175_40
  1746   0011B6                     i2u175_41:
  1747   0011B6  EFE2  F008         	goto	i2l3147
  1748   0011BA                     i2u175_40:
  1749   0011BA                     
  1750                           ;C:/Users/Om562/MPLABXProjects/PIC18/MCAL_Layer/Interrupt/mcal_interrupt_manager.c: 77: 
      +                            RB6_Flag = 0;
  1751   0011BA  0E00               	movlw	0
  1752   0011BC  6E20               	movwf	_RB6_Flag^0,c
  1753   0011BE                     
  1754                           ;C:/Users/Om562/MPLABXProjects/PIC18/MCAL_Layer/Interrupt/mcal_interrupt_manager.c: 78: 
      +                            RB6_ISR(1);
  1755   0011BE  0E01               	movlw	1
  1756   0011C0  ECEE  F00B         	call	_RB6_ISR
  1757   0011C4                     i2l3147:
  1758                           
  1759                           ;C:/Users/Om562/MPLABXProjects/PIC18/MCAL_Layer/Interrupt/mcal_interrupt_manager.c: 80: 
      +                           if ((INTCONbits.RBIE == 1) && (INTCONbits.RBIF == 1) && (PORTBbits.RB6 == 0) &&(RB6_Fla
      +                          g == 0)) {
  1760   0011C4  A6F2               	btfss	242,3,c	;volatile
  1761   0011C6  EFE7  F008         	goto	i2u176_41
  1762   0011CA  EFE9  F008         	goto	i2u176_40
  1763   0011CE                     i2u176_41:
  1764   0011CE  EF04  F009         	goto	i2l3159
  1765   0011D2                     i2u176_40:
  1766   0011D2  A0F2               	btfss	242,0,c	;volatile
  1767   0011D4  EFEE  F008         	goto	i2u177_41
  1768   0011D8  EFF0  F008         	goto	i2u177_40
  1769   0011DC                     i2u177_41:
  1770   0011DC  EF04  F009         	goto	i2l3159
  1771   0011E0                     i2u177_40:
  1772   0011E0  BC81               	btfsc	129,6,c	;volatile
  1773   0011E2  EFF5  F008         	goto	i2u178_41
  1774   0011E6  EFF7  F008         	goto	i2u178_40
  1775   0011EA                     i2u178_41:
  1776   0011EA  EF04  F009         	goto	i2l3159
  1777   0011EE                     i2u178_40:
  1778   0011EE  5020               	movf	_RB6_Flag^0,w,c
  1779   0011F0  A4D8               	btfss	status,2,c
  1780   0011F2  EFFD  F008         	goto	i2u179_41
  1781   0011F6  EFFF  F008         	goto	i2u179_40
  1782   0011FA                     i2u179_41:
  1783   0011FA  EF04  F009         	goto	i2l3159
  1784   0011FE                     i2u179_40:
  1785   0011FE                     
  1786                           ;C:/Users/Om562/MPLABXProjects/PIC18/MCAL_Layer/Interrupt/mcal_interrupt_manager.c: 81: 
      +                            RB6_Flag = 1;
  1787   0011FE  0E01               	movlw	1
  1788   001200  6E20               	movwf	_RB6_Flag^0,c
  1789   001202                     
  1790                           ;C:/Users/Om562/MPLABXProjects/PIC18/MCAL_Layer/Interrupt/mcal_interrupt_manager.c: 82: 
      +                            RB6_ISR(0);
  1791   001202  0E00               	movlw	0
  1792   001204  ECEE  F00B         	call	_RB6_ISR
  1793   001208                     i2l3159:
  1794                           
  1795                           ;C:/Users/Om562/MPLABXProjects/PIC18/MCAL_Layer/Interrupt/mcal_interrupt_manager.c: 86: 
      +                           if ((INTCONbits.RBIE == 1) && (INTCONbits.RBIF == 1) && (PORTBbits.RB7 == 1) &&(RB7_Fla
      +                          g == 1)) {
  1796   001208  A6F2               	btfss	242,3,c	;volatile
  1797   00120A  EF09  F009         	goto	i2u180_41
  1798   00120E  EF0B  F009         	goto	i2u180_40
  1799   001212                     i2u180_41:
  1800   001212  EF26  F009         	goto	i2l3171
  1801   001216                     i2u180_40:
  1802   001216  A0F2               	btfss	242,0,c	;volatile
  1803   001218  EF10  F009         	goto	i2u181_41
  1804   00121C  EF12  F009         	goto	i2u181_40
  1805   001220                     i2u181_41:
  1806   001220  EF26  F009         	goto	i2l3171
  1807   001224                     i2u181_40:
  1808   001224  AE81               	btfss	129,7,c	;volatile
  1809   001226  EF17  F009         	goto	i2u182_41
  1810   00122A  EF19  F009         	goto	i2u182_40
  1811   00122E                     i2u182_41:
  1812   00122E  EF26  F009         	goto	i2l3171
  1813   001232                     i2u182_40:
  1814   001232  041F               	decf	_RB7_Flag^0,w,c
  1815   001234  A4D8               	btfss	status,2,c
  1816   001236  EF1F  F009         	goto	i2u183_41
  1817   00123A  EF21  F009         	goto	i2u183_40
  1818   00123E                     i2u183_41:
  1819   00123E  EF26  F009         	goto	i2l3171
  1820   001242                     i2u183_40:
  1821   001242                     
  1822                           ;C:/Users/Om562/MPLABXProjects/PIC18/MCAL_Layer/Interrupt/mcal_interrupt_manager.c: 87: 
      +                            RB7_Flag = 0;
  1823   001242  0E00               	movlw	0
  1824   001244  6E1F               	movwf	_RB7_Flag^0,c
  1825   001246                     
  1826                           ;C:/Users/Om562/MPLABXProjects/PIC18/MCAL_Layer/Interrupt/mcal_interrupt_manager.c: 88: 
      +                            RB7_ISR(1);
  1827   001246  0E01               	movlw	1
  1828   001248  ECEC  F00B         	call	_RB7_ISR
  1829   00124C                     i2l3171:
  1830                           
  1831                           ;C:/Users/Om562/MPLABXProjects/PIC18/MCAL_Layer/Interrupt/mcal_interrupt_manager.c: 90: 
      +                           if ((INTCONbits.RBIE == 1) && (INTCONbits.RBIF == 1) && (PORTBbits.RB7 == 0) &&(RB7_Fla
      +                          g == 0)) {
  1832   00124C  A6F2               	btfss	242,3,c	;volatile
  1833   00124E  EF2B  F009         	goto	i2u184_41
  1834   001252  EF2D  F009         	goto	i2u184_40
  1835   001256                     i2u184_41:
  1836   001256  EF48  F009         	goto	i2l3183
  1837   00125A                     i2u184_40:
  1838   00125A  A0F2               	btfss	242,0,c	;volatile
  1839   00125C  EF32  F009         	goto	i2u185_41
  1840   001260  EF34  F009         	goto	i2u185_40
  1841   001264                     i2u185_41:
  1842   001264  EF48  F009         	goto	i2l3183
  1843   001268                     i2u185_40:
  1844   001268  BE81               	btfsc	129,7,c	;volatile
  1845   00126A  EF39  F009         	goto	i2u186_41
  1846   00126E  EF3B  F009         	goto	i2u186_40
  1847   001272                     i2u186_41:
  1848   001272  EF48  F009         	goto	i2l3183
  1849   001276                     i2u186_40:
  1850   001276  501F               	movf	_RB7_Flag^0,w,c
  1851   001278  A4D8               	btfss	status,2,c
  1852   00127A  EF41  F009         	goto	i2u187_41
  1853   00127E  EF43  F009         	goto	i2u187_40
  1854   001282                     i2u187_41:
  1855   001282  EF48  F009         	goto	i2l3183
  1856   001286                     i2u187_40:
  1857   001286                     
  1858                           ;C:/Users/Om562/MPLABXProjects/PIC18/MCAL_Layer/Interrupt/mcal_interrupt_manager.c: 91: 
      +                            RB7_Flag = 1;
  1859   001286  0E01               	movlw	1
  1860   001288  6E1F               	movwf	_RB7_Flag^0,c
  1861   00128A                     
  1862                           ;C:/Users/Om562/MPLABXProjects/PIC18/MCAL_Layer/Interrupt/mcal_interrupt_manager.c: 92: 
      +                            RB7_ISR(0);
  1863   00128A  0E00               	movlw	0
  1864   00128C  ECEC  F00B         	call	_RB7_ISR
  1865   001290                     i2l3183:
  1866                           
  1867                           ;C:/Users/Om562/MPLABXProjects/PIC18/MCAL_Layer/Interrupt/mcal_interrupt_manager.c: 97: 
      +                           if ((PIE1bits.ADIE == 1) && (PIR1bits.ADIF == 1)) {
  1868   001290  AC9D               	btfss	157,6,c	;volatile
  1869   001292  EF4D  F009         	goto	i2u188_41
  1870   001296  EF4F  F009         	goto	i2u188_40
  1871   00129A                     i2u188_41:
  1872   00129A  EF58  F009         	goto	i2l3189
  1873   00129E                     i2u188_40:
  1874   00129E  AC9E               	btfss	158,6,c	;volatile
  1875   0012A0  EF54  F009         	goto	i2u189_41
  1876   0012A4  EF56  F009         	goto	i2u189_40
  1877   0012A8                     i2u189_41:
  1878   0012A8  EF58  F009         	goto	i2l3189
  1879   0012AC                     i2u189_40:
  1880   0012AC                     
  1881                           ;C:/Users/Om562/MPLABXProjects/PIC18/MCAL_Layer/Interrupt/mcal_interrupt_manager.c: 98: 
      +                            ADC_ISR();
  1882   0012AC  ECFA  F00B         	call	_ADC_ISR	;wreg free
  1883   0012B0                     i2l3189:
  1884                           
  1885                           ;C:/Users/Om562/MPLABXProjects/PIC18/MCAL_Layer/Interrupt/mcal_interrupt_manager.c: 103:
      +                            if ((INTCONbits.TMR0IE == 1) && (INTCONbits.TMR0IF == 1)) {
  1886   0012B0  AAF2               	btfss	242,5,c	;volatile
  1887   0012B2  EF5D  F009         	goto	i2u190_41
  1888   0012B6  EF5F  F009         	goto	i2u190_40
  1889   0012BA                     i2u190_41:
  1890   0012BA  EF68  F009         	goto	i2l816
  1891   0012BE                     i2u190_40:
  1892   0012BE  A4F2               	btfss	242,2,c	;volatile
  1893   0012C0  EF64  F009         	goto	i2u191_41
  1894   0012C4  EF66  F009         	goto	i2u191_40
  1895   0012C8                     i2u191_41:
  1896   0012C8  EF68  F009         	goto	i2l816
  1897   0012CC                     i2u191_40:
  1898   0012CC                     
  1899                           ;C:/Users/Om562/MPLABXProjects/PIC18/MCAL_Layer/Interrupt/mcal_interrupt_manager.c: 104:
      +                             TMR0_ISR();
  1900   0012CC  ECAB  F00B         	call	_TMR0_ISR	;wreg free
  1901   0012D0                     i2l816:
  1902   0012D0  C052  FFFB         	movff	??_InterruptManager+1,pclatu
  1903   0012D4  C051  FFFA         	movff	??_InterruptManager,pclath
  1904   0012D8  9260               	bcf	int$flags,1,c	;clear compiler interrupt flag (level 2)
  1905   0012DA  0011               	retfie		f
  1906   0012DC                     __end_of_InterruptManager:
  1907                           	callstack 0
  1908                           
  1909 ;; *************** function _TMR0_ISR *****************
  1910 ;; Defined at:
  1911 ;;		line 19 in file "MCAL_Layer/TIMER0/hal_timer0.c"
  1912 ;; Parameters:    Size  Location     Type
  1913 ;;		None
  1914 ;; Auto vars:     Size  Location     Type
  1915 ;;		None
  1916 ;; Return value:  Size  Location     Type
  1917 ;;                  1    wreg      void 
  1918 ;; Registers used:
  1919 ;;		wreg, status,2, status,0, pcl, pclath, pclatu, tosl, cstack
  1920 ;; Tracked objects:
  1921 ;;		On entry : 0/0
  1922 ;;		On exit  : 0/0
  1923 ;;		Unchanged: 0/0
  1924 ;; Data sizes:     COMRAM   BANK0   BANK1   BANK2   BANK3   BANK4   BANK5   BANK6   BANK7   BANK8   BANK9  BANK10  BANK1
      +1  BANK12  BANK13  BANK14  BANK15
  1925 ;;      Params:         0       0       0       0       0       0       0       0       0       0       0       0       
      +0       0       0       0       0
  1926 ;;      Locals:         0       0       0       0       0       0       0       0       0       0       0       0       
      +0       0       0       0       0
  1927 ;;      Temps:          0       0       0       0       0       0       0       0       0       0       0       0       
      +0       0       0       0       0
  1928 ;;      Totals:         0       0       0       0       0       0       0       0       0       0       0       0       
      +0       0       0       0       0
  1929 ;;Total ram usage:        0 bytes
  1930 ;; Hardware stack levels used: 1
  1931 ;; Hardware stack levels required when called: 1
  1932 ;; This function calls:
  1933 ;;		NULL
  1934 ;;		_functionss
  1935 ;; This function is called by:
  1936 ;;		_InterruptManager
  1937 ;; This function uses a non-reentrant model
  1938 ;;
  1939                           
  1940                           	psect	text10
  1941   001756                     __ptext10:
  1942                           	callstack 0
  1943   001756                     _TMR0_ISR:
  1944                           	callstack 25
  1945   001756                     
  1946                           ;MCAL_Layer/TIMER0/hal_timer0.c: 21:  (INTCONbits.TMR0IF= 0);
  1947   001756  94F2               	bcf	242,2,c	;volatile
  1948   001758                     
  1949                           ;MCAL_Layer/TIMER0/hal_timer0.c: 22:  TMR0H = (uint8_t) ((timer0PreloadValue) >> 8);
  1950   001758  502C               	movf	(_timer0PreloadValue+1)^0,w,c
  1951   00175A  6ED7               	movwf	215,c	;volatile
  1952   00175C                     
  1953                           ;MCAL_Layer/TIMER0/hal_timer0.c: 23:  TMR0L = (uint8_t) (timer0PreloadValue);
  1954   00175C  C02B  FFD6         	movff	_timer0PreloadValue,4054	;volatile
  1955   001760                     
  1956                           ;MCAL_Layer/TIMER0/hal_timer0.c: 24:  if (Handler)
  1957   001760  502D               	movf	_Handler^0,w,c
  1958   001762  102E               	iorwf	(_Handler+1)^0,w,c
  1959   001764  B4D8               	btfsc	status,2,c
  1960   001766  EFB7  F00B         	goto	i2u45_41
  1961   00176A  EFB9  F00B         	goto	i2u45_40
  1962   00176E                     i2u45_41:
  1963   00176E  EFC5  F00B         	goto	i2l861
  1964   001772                     i2u45_40:
  1965   001772                     
  1966                           ;MCAL_Layer/TIMER0/hal_timer0.c: 25:   Handler();
  1967   001772  D802               	call	i2u46_48
  1968   001774  EFC5  F00B         	goto	i2u46_49
  1969   001778                     i2u46_48:
  1970   001778  0005               	push	
  1971   00177A  6EFA               	movwf	pclath,c
  1972   00177C  502D               	movf	_Handler^0,w,c
  1973   00177E  6EFD               	movwf	tosl,c
  1974   001780  502E               	movf	(_Handler+1)^0,w,c
  1975   001782  6EFE               	movwf	tosh,c
  1976   001784  6AFF               	clrf	tosu,c
  1977   001786  50FA               	movf	pclath,w,c
  1978   001788  0012               	return		;indir
  1979   00178A                     i2u46_49:
  1980   00178A                     i2l861:
  1981   00178A  0012               	return		;funcret
  1982   00178C                     __end_of_TMR0_ISR:
  1983                           	callstack 0
  1984                           
  1985 ;; *************** function _functionss *****************
  1986 ;; Defined at:
  1987 ;;		line 20 in file "Application.c"
  1988 ;; Parameters:    Size  Location     Type
  1989 ;;		None
  1990 ;; Auto vars:     Size  Location     Type
  1991 ;;		None
  1992 ;; Return value:  Size  Location     Type
  1993 ;;                  1    wreg      void 
  1994 ;; Registers used:
  1995 ;;		wreg, status,2, status,0
  1996 ;; Tracked objects:
  1997 ;;		On entry : 0/0
  1998 ;;		On exit  : 0/0
  1999 ;;		Unchanged: 0/0
  2000 ;; Data sizes:     COMRAM   BANK0   BANK1   BANK2   BANK3   BANK4   BANK5   BANK6   BANK7   BANK8   BANK9  BANK10  BANK1
      +1  BANK12  BANK13  BANK14  BANK15
  2001 ;;      Params:         0       0       0       0       0       0       0       0       0       0       0       0       
      +0       0       0       0       0
  2002 ;;      Locals:         0       0       0       0       0       0       0       0       0       0       0       0       
      +0       0       0       0       0
  2003 ;;      Temps:          0       0       0       0       0       0       0       0       0       0       0       0       
      +0       0       0       0       0
  2004 ;;      Totals:         0       0       0       0       0       0       0       0       0       0       0       0       
      +0       0       0       0       0
  2005 ;;Total ram usage:        0 bytes
  2006 ;; Hardware stack levels used: 1
  2007 ;; This function calls:
  2008 ;;		Nothing
  2009 ;; This function is called by:
  2010 ;;		_TMR0_ISR
  2011 ;; This function uses a non-reentrant model
  2012 ;;
  2013                           
  2014                           	psect	text11
  2015   0017CE                     __ptext11:
  2016                           	callstack 0
  2017   0017CE                     _functionss:
  2018                           	callstack 25
  2019   0017CE                     
  2020                           ;Application.c: 22:  flag++;
  2021   0017CE  4A2F               	infsnz	_flag^0,f,c	;volatile
  2022   0017D0  2A30               	incf	(_flag+1)^0,f,c	;volatile
  2023   0017D2                     
  2024                           ;Application.c: 23:  (*(&LATC) ^= (0x01 << GPIO_PIN0));
  2025   0017D2  0E01               	movlw	1
  2026   0017D4  1A8B               	xorwf	139,f,c	;volatile
  2027   0017D6  0012               	return		;funcret
  2028   0017D8                     __end_of_functionss:
  2029                           	callstack 0
  2030                           
  2031 ;; *************** function _RB7_ISR *****************
  2032 ;; Defined at:
  2033 ;;		line 93 in file "C:/Users/Om562/MPLABXProjects/PIC18/MCAL_Layer/Interrupt/mcal_external_interrupt.c"
  2034 ;; Parameters:    Size  Location     Type
  2035 ;;  src             1    wreg     unsigned char 
  2036 ;; Auto vars:     Size  Location     Type
  2037 ;;  src             1    0[COMRAM] unsigned char 
  2038 ;; Return value:  Size  Location     Type
  2039 ;;                  1    wreg      void 
  2040 ;; Registers used:
  2041 ;;		wreg
  2042 ;; Tracked objects:
  2043 ;;		On entry : 0/0
  2044 ;;		On exit  : 0/0
  2045 ;;		Unchanged: 0/0
  2046 ;; Data sizes:     COMRAM   BANK0   BANK1   BANK2   BANK3   BANK4   BANK5   BANK6   BANK7   BANK8   BANK9  BANK10  BANK1
      +1  BANK12  BANK13  BANK14  BANK15
  2047 ;;      Params:         0       0       0       0       0       0       0       0       0       0       0       0       
      +0       0       0       0       0
  2048 ;;      Locals:         1       0       0       0       0       0       0       0       0       0       0       0       
      +0       0       0       0       0
  2049 ;;      Temps:          0       0       0       0       0       0       0       0       0       0       0       0       
      +0       0       0       0       0
  2050 ;;      Totals:         1       0       0       0       0       0       0       0       0       0       0       0       
      +0       0       0       0       0
  2051 ;;Total ram usage:        1 bytes
  2052 ;; Hardware stack levels used: 1
  2053 ;; This function calls:
  2054 ;;		Nothing
  2055 ;; This function is called by:
  2056 ;;		_InterruptManager
  2057 ;; This function uses a non-reentrant model
  2058 ;;
  2059                           
  2060                           	psect	text12
  2061   0017D8                     __ptext12:
  2062                           	callstack 0
  2063   0017D8                     _RB7_ISR:
  2064                           	callstack 26
  2065   0017D8                     
  2066                           ;C:/Users/Om562/MPLABXProjects/PIC18/MCAL_Layer/Interrupt/mcal_external_interrupt.c: 93:
      +                           void RB7_ISR(uint8_t src);C:/Users/Om562/MPLABXProjects/PIC18/MCAL_Layer/Interrupt/mcal
      +                          _external_interrupt.c: 94: {;C:/Users/Om562/MPLABXProjects/PIC18/MCAL_Layer/Interrupt/mc
      +                          al_external_interrupt.c: 95:  (INTCONbits.RBIF = 0);
  2067   0017D8  90F2               	bcf	242,0,c	;volatile
  2068   0017DA  0012               	return		;funcret
  2069   0017DC                     __end_of_RB7_ISR:
  2070                           	callstack 0
  2071                           
  2072 ;; *************** function _RB6_ISR *****************
  2073 ;; Defined at:
  2074 ;;		line 82 in file "C:/Users/Om562/MPLABXProjects/PIC18/MCAL_Layer/Interrupt/mcal_external_interrupt.c"
  2075 ;; Parameters:    Size  Location     Type
  2076 ;;  src             1    wreg     unsigned char 
  2077 ;; Auto vars:     Size  Location     Type
  2078 ;;  src             1    0[COMRAM] unsigned char 
  2079 ;; Return value:  Size  Location     Type
  2080 ;;                  1    wreg      void 
  2081 ;; Registers used:
  2082 ;;		wreg
  2083 ;; Tracked objects:
  2084 ;;		On entry : 0/0
  2085 ;;		On exit  : 0/0
  2086 ;;		Unchanged: 0/0
  2087 ;; Data sizes:     COMRAM   BANK0   BANK1   BANK2   BANK3   BANK4   BANK5   BANK6   BANK7   BANK8   BANK9  BANK10  BANK1
      +1  BANK12  BANK13  BANK14  BANK15
  2088 ;;      Params:         0       0       0       0       0       0       0       0       0       0       0       0       
      +0       0       0       0       0
  2089 ;;      Locals:         1       0       0       0       0       0       0       0       0       0       0       0       
      +0       0       0       0       0
  2090 ;;      Temps:          0       0       0       0       0       0       0       0       0       0       0       0       
      +0       0       0       0       0
  2091 ;;      Totals:         1       0       0       0       0       0       0       0       0       0       0       0       
      +0       0       0       0       0
  2092 ;;Total ram usage:        1 bytes
  2093 ;; Hardware stack levels used: 1
  2094 ;; This function calls:
  2095 ;;		Nothing
  2096 ;; This function is called by:
  2097 ;;		_InterruptManager
  2098 ;; This function uses a non-reentrant model
  2099 ;;
  2100                           
  2101                           	psect	text13
  2102   0017DC                     __ptext13:
  2103                           	callstack 0
  2104   0017DC                     _RB6_ISR:
  2105                           	callstack 26
  2106   0017DC                     
  2107                           ;C:/Users/Om562/MPLABXProjects/PIC18/MCAL_Layer/Interrupt/mcal_external_interrupt.c: 82:
      +                           void RB6_ISR(uint8_t src);C:/Users/Om562/MPLABXProjects/PIC18/MCAL_Layer/Interrupt/mcal
      +                          _external_interrupt.c: 83: {;C:/Users/Om562/MPLABXProjects/PIC18/MCAL_Layer/Interrupt/mc
      +                          al_external_interrupt.c: 84:  (INTCONbits.RBIF = 0);
  2108   0017DC  90F2               	bcf	242,0,c	;volatile
  2109   0017DE  0012               	return		;funcret
  2110   0017E0                     __end_of_RB6_ISR:
  2111                           	callstack 0
  2112                           
  2113 ;; *************** function _RB5_ISR *****************
  2114 ;; Defined at:
  2115 ;;		line 71 in file "C:/Users/Om562/MPLABXProjects/PIC18/MCAL_Layer/Interrupt/mcal_external_interrupt.c"
  2116 ;; Parameters:    Size  Location     Type
  2117 ;;  src             1    wreg     unsigned char 
  2118 ;; Auto vars:     Size  Location     Type
  2119 ;;  src             1    0[COMRAM] unsigned char 
  2120 ;; Return value:  Size  Location     Type
  2121 ;;                  1    wreg      void 
  2122 ;; Registers used:
  2123 ;;		wreg
  2124 ;; Tracked objects:
  2125 ;;		On entry : 0/0
  2126 ;;		On exit  : 0/0
  2127 ;;		Unchanged: 0/0
  2128 ;; Data sizes:     COMRAM   BANK0   BANK1   BANK2   BANK3   BANK4   BANK5   BANK6   BANK7   BANK8   BANK9  BANK10  BANK1
      +1  BANK12  BANK13  BANK14  BANK15
  2129 ;;      Params:         0       0       0       0       0       0       0       0       0       0       0       0       
      +0       0       0       0       0
  2130 ;;      Locals:         1       0       0       0       0       0       0       0       0       0       0       0       
      +0       0       0       0       0
  2131 ;;      Temps:          0       0       0       0       0       0       0       0       0       0       0       0       
      +0       0       0       0       0
  2132 ;;      Totals:         1       0       0       0       0       0       0       0       0       0       0       0       
      +0       0       0       0       0
  2133 ;;Total ram usage:        1 bytes
  2134 ;; Hardware stack levels used: 1
  2135 ;; This function calls:
  2136 ;;		Nothing
  2137 ;; This function is called by:
  2138 ;;		_InterruptManager
  2139 ;; This function uses a non-reentrant model
  2140 ;;
  2141                           
  2142                           	psect	text14
  2143   0017E0                     __ptext14:
  2144                           	callstack 0
  2145   0017E0                     _RB5_ISR:
  2146                           	callstack 26
  2147   0017E0                     
  2148                           ;C:/Users/Om562/MPLABXProjects/PIC18/MCAL_Layer/Interrupt/mcal_external_interrupt.c: 71:
      +                           void RB5_ISR(uint8_t src);C:/Users/Om562/MPLABXProjects/PIC18/MCAL_Layer/Interrupt/mcal
      +                          _external_interrupt.c: 72: {;C:/Users/Om562/MPLABXProjects/PIC18/MCAL_Layer/Interrupt/mc
      +                          al_external_interrupt.c: 73:  (INTCONbits.RBIF = 0);
  2149   0017E0  90F2               	bcf	242,0,c	;volatile
  2150   0017E2  0012               	return		;funcret
  2151   0017E4                     __end_of_RB5_ISR:
  2152                           	callstack 0
  2153                           
  2154 ;; *************** function _RB4_ISR *****************
  2155 ;; Defined at:
  2156 ;;		line 60 in file "C:/Users/Om562/MPLABXProjects/PIC18/MCAL_Layer/Interrupt/mcal_external_interrupt.c"
  2157 ;; Parameters:    Size  Location     Type
  2158 ;;  src             1    wreg     unsigned char 
  2159 ;; Auto vars:     Size  Location     Type
  2160 ;;  src             1    0[COMRAM] unsigned char 
  2161 ;; Return value:  Size  Location     Type
  2162 ;;                  1    wreg      void 
  2163 ;; Registers used:
  2164 ;;		wreg
  2165 ;; Tracked objects:
  2166 ;;		On entry : 0/0
  2167 ;;		On exit  : 0/0
  2168 ;;		Unchanged: 0/0
  2169 ;; Data sizes:     COMRAM   BANK0   BANK1   BANK2   BANK3   BANK4   BANK5   BANK6   BANK7   BANK8   BANK9  BANK10  BANK1
      +1  BANK12  BANK13  BANK14  BANK15
  2170 ;;      Params:         0       0       0       0       0       0       0       0       0       0       0       0       
      +0       0       0       0       0
  2171 ;;      Locals:         1       0       0       0       0       0       0       0       0       0       0       0       
      +0       0       0       0       0
  2172 ;;      Temps:          0       0       0       0       0       0       0       0       0       0       0       0       
      +0       0       0       0       0
  2173 ;;      Totals:         1       0       0       0       0       0       0       0       0       0       0       0       
      +0       0       0       0       0
  2174 ;;Total ram usage:        1 bytes
  2175 ;; Hardware stack levels used: 1
  2176 ;; This function calls:
  2177 ;;		Nothing
  2178 ;; This function is called by:
  2179 ;;		_InterruptManager
  2180 ;; This function uses a non-reentrant model
  2181 ;;
  2182                           
  2183                           	psect	text15
  2184   0017E4                     __ptext15:
  2185                           	callstack 0
  2186   0017E4                     _RB4_ISR:
  2187                           	callstack 26
  2188   0017E4                     
  2189                           ;C:/Users/Om562/MPLABXProjects/PIC18/MCAL_Layer/Interrupt/mcal_external_interrupt.c: 60:
      +                           void RB4_ISR(uint8_t src);C:/Users/Om562/MPLABXProjects/PIC18/MCAL_Layer/Interrupt/mcal
      +                          _external_interrupt.c: 61: {;C:/Users/Om562/MPLABXProjects/PIC18/MCAL_Layer/Interrupt/mc
      +                          al_external_interrupt.c: 62:  (INTCONbits.RBIF = 0);
  2190   0017E4  90F2               	bcf	242,0,c	;volatile
  2191   0017E6  0012               	return		;funcret
  2192   0017E8                     __end_of_RB4_ISR:
  2193                           	callstack 0
  2194                           
  2195 ;; *************** function _INT2_ISR *****************
  2196 ;; Defined at:
  2197 ;;		line 50 in file "C:/Users/Om562/MPLABXProjects/PIC18/MCAL_Layer/Interrupt/mcal_external_interrupt.c"
  2198 ;; Parameters:    Size  Location     Type
  2199 ;;		None
  2200 ;; Auto vars:     Size  Location     Type
  2201 ;;		None
  2202 ;; Return value:  Size  Location     Type
  2203 ;;                  1    wreg      void 
  2204 ;; Registers used:
  2205 ;;		None
  2206 ;; Tracked objects:
  2207 ;;		On entry : 0/0
  2208 ;;		On exit  : 0/0
  2209 ;;		Unchanged: 0/0
  2210 ;; Data sizes:     COMRAM   BANK0   BANK1   BANK2   BANK3   BANK4   BANK5   BANK6   BANK7   BANK8   BANK9  BANK10  BANK1
      +1  BANK12  BANK13  BANK14  BANK15
  2211 ;;      Params:         0       0       0       0       0       0       0       0       0       0       0       0       
      +0       0       0       0       0
  2212 ;;      Locals:         0       0       0       0       0       0       0       0       0       0       0       0       
      +0       0       0       0       0
  2213 ;;      Temps:          0       0       0       0       0       0       0       0       0       0       0       0       
      +0       0       0       0       0
  2214 ;;      Totals:         0       0       0       0       0       0       0       0       0       0       0       0       
      +0       0       0       0       0
  2215 ;;Total ram usage:        0 bytes
  2216 ;; Hardware stack levels used: 1
  2217 ;; This function calls:
  2218 ;;		Nothing
  2219 ;; This function is called by:
  2220 ;;		_InterruptManager
  2221 ;; This function uses a non-reentrant model
  2222 ;;
  2223                           
  2224                           	psect	text16
  2225   0017E8                     __ptext16:
  2226                           	callstack 0
  2227   0017E8                     _INT2_ISR:
  2228                           	callstack 26
  2229   0017E8                     
  2230                           ;C:/Users/Om562/MPLABXProjects/PIC18/MCAL_Layer/Interrupt/mcal_external_interrupt.c: 53:
      +                            (INTCON3bits.INT2F = 0);
  2231   0017E8  92F0               	bcf	240,1,c	;volatile
  2232   0017EA  0012               	return		;funcret
  2233   0017EC                     __end_of_INT2_ISR:
  2234                           	callstack 0
  2235                           
  2236 ;; *************** function _INT1_ISR *****************
  2237 ;; Defined at:
  2238 ;;		line 40 in file "C:/Users/Om562/MPLABXProjects/PIC18/MCAL_Layer/Interrupt/mcal_external_interrupt.c"
  2239 ;; Parameters:    Size  Location     Type
  2240 ;;		None
  2241 ;; Auto vars:     Size  Location     Type
  2242 ;;		None
  2243 ;; Return value:  Size  Location     Type
  2244 ;;                  1    wreg      void 
  2245 ;; Registers used:
  2246 ;;		None
  2247 ;; Tracked objects:
  2248 ;;		On entry : 0/0
  2249 ;;		On exit  : 0/0
  2250 ;;		Unchanged: 0/0
  2251 ;; Data sizes:     COMRAM   BANK0   BANK1   BANK2   BANK3   BANK4   BANK5   BANK6   BANK7   BANK8   BANK9  BANK10  BANK1
      +1  BANK12  BANK13  BANK14  BANK15
  2252 ;;      Params:         0       0       0       0       0       0       0       0       0       0       0       0       
      +0       0       0       0       0
  2253 ;;      Locals:         0       0       0       0       0       0       0       0       0       0       0       0       
      +0       0       0       0       0
  2254 ;;      Temps:          0       0       0       0       0       0       0       0       0       0       0       0       
      +0       0       0       0       0
  2255 ;;      Totals:         0       0       0       0       0       0       0       0       0       0       0       0       
      +0       0       0       0       0
  2256 ;;Total ram usage:        0 bytes
  2257 ;; Hardware stack levels used: 1
  2258 ;; This function calls:
  2259 ;;		Nothing
  2260 ;; This function is called by:
  2261 ;;		_InterruptManager
  2262 ;; This function uses a non-reentrant model
  2263 ;;
  2264                           
  2265                           	psect	text17
  2266   0017EC                     __ptext17:
  2267                           	callstack 0
  2268   0017EC                     _INT1_ISR:
  2269                           	callstack 26
  2270   0017EC                     
  2271                           ;C:/Users/Om562/MPLABXProjects/PIC18/MCAL_Layer/Interrupt/mcal_external_interrupt.c: 43:
      +                            (INTCON3bits.INT1F = 0);
  2272   0017EC  90F0               	bcf	240,0,c	;volatile
  2273   0017EE  0012               	return		;funcret
  2274   0017F0                     __end_of_INT1_ISR:
  2275                           	callstack 0
  2276                           
  2277 ;; *************** function _INT0_ISR *****************
  2278 ;; Defined at:
  2279 ;;		line 31 in file "C:/Users/Om562/MPLABXProjects/PIC18/MCAL_Layer/Interrupt/mcal_external_interrupt.c"
  2280 ;; Parameters:    Size  Location     Type
  2281 ;;		None
  2282 ;; Auto vars:     Size  Location     Type
  2283 ;;		None
  2284 ;; Return value:  Size  Location     Type
  2285 ;;                  1    wreg      void 
  2286 ;; Registers used:
  2287 ;;		None
  2288 ;; Tracked objects:
  2289 ;;		On entry : 0/0
  2290 ;;		On exit  : 0/0
  2291 ;;		Unchanged: 0/0
  2292 ;; Data sizes:     COMRAM   BANK0   BANK1   BANK2   BANK3   BANK4   BANK5   BANK6   BANK7   BANK8   BANK9  BANK10  BANK1
      +1  BANK12  BANK13  BANK14  BANK15
  2293 ;;      Params:         0       0       0       0       0       0       0       0       0       0       0       0       
      +0       0       0       0       0
  2294 ;;      Locals:         0       0       0       0       0       0       0       0       0       0       0       0       
      +0       0       0       0       0
  2295 ;;      Temps:          0       0       0       0       0       0       0       0       0       0       0       0       
      +0       0       0       0       0
  2296 ;;      Totals:         0       0       0       0       0       0       0       0       0       0       0       0       
      +0       0       0       0       0
  2297 ;;Total ram usage:        0 bytes
  2298 ;; Hardware stack levels used: 1
  2299 ;; This function calls:
  2300 ;;		Nothing
  2301 ;; This function is called by:
  2302 ;;		_InterruptManager
  2303 ;; This function uses a non-reentrant model
  2304 ;;
  2305                           
  2306                           	psect	text18
  2307   0017F0                     __ptext18:
  2308                           	callstack 0
  2309   0017F0                     _INT0_ISR:
  2310                           	callstack 26
  2311   0017F0                     
  2312                           ;C:/Users/Om562/MPLABXProjects/PIC18/MCAL_Layer/Interrupt/mcal_external_interrupt.c: 34:
      +                            (INTCONbits.INT0IF = 0);
  2313   0017F0  92F2               	bcf	242,1,c	;volatile
  2314   0017F2  0012               	return		;funcret
  2315   0017F4                     __end_of_INT0_ISR:
  2316                           	callstack 0
  2317                           
  2318 ;; *************** function _ADC_ISR *****************
  2319 ;; Defined at:
  2320 ;;		line 228 in file "MCAL_Layer/ADC/hal_adc.c"
  2321 ;; Parameters:    Size  Location     Type
  2322 ;;		None
  2323 ;; Auto vars:     Size  Location     Type
  2324 ;;		None
  2325 ;; Return value:  Size  Location     Type
  2326 ;;                  1    wreg      void 
  2327 ;; Registers used:
  2328 ;;		None
  2329 ;; Tracked objects:
  2330 ;;		On entry : 0/0
  2331 ;;		On exit  : 0/0
  2332 ;;		Unchanged: 0/0
  2333 ;; Data sizes:     COMRAM   BANK0   BANK1   BANK2   BANK3   BANK4   BANK5   BANK6   BANK7   BANK8   BANK9  BANK10  BANK1
      +1  BANK12  BANK13  BANK14  BANK15
  2334 ;;      Params:         0       0       0       0       0       0       0       0       0       0       0       0       
      +0       0       0       0       0
  2335 ;;      Locals:         0       0       0       0       0       0       0       0       0       0       0       0       
      +0       0       0       0       0
  2336 ;;      Temps:          0       0       0       0       0       0       0       0       0       0       0       0       
      +0       0       0       0       0
  2337 ;;      Totals:         0       0       0       0       0       0       0       0       0       0       0       0       
      +0       0       0       0       0
  2338 ;;Total ram usage:        0 bytes
  2339 ;; Hardware stack levels used: 1
  2340 ;; This function calls:
  2341 ;;		Nothing
  2342 ;; This function is called by:
  2343 ;;		_InterruptManager
  2344 ;; This function uses a non-reentrant model
  2345 ;;
  2346                           
  2347                           	psect	text19
  2348   0017F4                     __ptext19:
  2349                           	callstack 0
  2350   0017F4                     _ADC_ISR:
  2351                           	callstack 26
  2352   0017F4                     
  2353                           ;MCAL_Layer/ADC/hal_adc.c: 230:  (PIR1bits.ADIF = 0);
  2354   0017F4  9C9E               	bcf	158,6,c	;volatile
  2355   0017F6  0012               	return		;funcret
  2356   0017F8                     __end_of_ADC_ISR:
  2357                           	callstack 0
  2358                           
  2359                           	psect	text20
  2360   000000                     __ptext20:
  2361                           	callstack 0
  2362   000000                     
  2363                           	psect	rparam
  2364   000000                     
  2365                           	psect	temp
  2366   000060                     btemp:
  2367                           	callstack 0
  2368   000060                     	ds	1
  2369   000000                     int$flags	set	btemp
  2370   000000                     wtemp8	set	btemp+1
  2371   000000                     ttemp5	set	btemp+1
  2372   000000                     ttemp6	set	btemp+4
  2373   000000                     ttemp7	set	btemp+8
  2374                           
  2375                           	psect	config
  2376                           
  2377                           ; Padding undefined space
  2378   300000                     	org	3145728
  2379   300000  FF                 	db	255
  2380                           
  2381                           ;Config register CONFIG1H @ 0x300001
  2382                           ;	Oscillator Selection bits
  2383                           ;	OSC = HS, HS oscillator
  2384                           ;	Fail-Safe Clock Monitor Enable bit
  2385                           ;	FCMEN = OFF, Fail-Safe Clock Monitor disabled
  2386                           ;	Internal/External Oscillator Switchover bit
  2387                           ;	IESO = OFF, Oscillator Switchover mode disabled
  2388   300001                     	org	3145729
  2389   300001  02                 	db	2
  2390                           
  2391                           ;Config register CONFIG2L @ 0x300002
  2392                           ;	Power-up Timer Enable bit
  2393                           ;	PWRT = OFF, PWRT disabled
  2394                           ;	Brown-out Reset Enable bits
  2395                           ;	BOREN = OFF, Brown-out Reset disabled in hardware and software
  2396                           ;	Brown Out Reset Voltage bits
  2397                           ;	BORV = 1, 
  2398   300002                     	org	3145730
  2399   300002  09                 	db	9
  2400                           
  2401                           ;Config register CONFIG2H @ 0x300003
  2402                           ;	Watchdog Timer Enable bit
  2403                           ;	WDT = ON, WDT enabled
  2404                           ;	Watchdog Timer Postscale Select bits
  2405                           ;	WDTPS = 32768, 1:32768
  2406   300003                     	org	3145731
  2407   300003  1F                 	db	31
  2408                           
  2409                           ; Padding undefined space
  2410   300004                     	org	3145732
  2411   300004  FF                 	db	255
  2412                           
  2413                           ;Config register CONFIG3H @ 0x300005
  2414                           ;	CCP2 MUX bit
  2415                           ;	CCP2MX = PORTC, CCP2 input/output is multiplexed with RC1
  2416                           ;	PORTB A/D Enable bit
  2417                           ;	PBADEN = OFF, PORTB<4:0> pins are configured as digital I/O on Reset
  2418                           ;	Low-Power Timer1 Oscillator Enable bit
  2419                           ;	LPT1OSC = OFF, Timer1 configured for higher power operation
  2420                           ;	MCLR Pin Enable bit
  2421                           ;	MCLRE = ON, MCLR pin enabled; RE3 input pin disabled
  2422   300005                     	org	3145733
  2423   300005  81                 	db	129
  2424                           
  2425                           ;Config register CONFIG4L @ 0x300006
  2426                           ;	Stack Full/Underflow Reset Enable bit
  2427                           ;	STVREN = ON, Stack full/underflow will cause Reset
  2428                           ;	Single-Supply ICSP Enable bit
  2429                           ;	LVP = OFF, Single-Supply ICSP disabled
  2430                           ;	Extended Instruction Set Enable bit
  2431                           ;	XINST = OFF, Instruction set extension and Indexed Addressing mode disabled (Legacy mo
      +                          de)
  2432                           ;	Background Debugger Enable bit
  2433                           ;	DEBUG = 0x1, unprogrammed default
  2434   300006                     	org	3145734
  2435   300006  81                 	db	129
  2436                           
  2437                           ; Padding undefined space
  2438   300007                     	org	3145735
  2439   300007  FF                 	db	255
  2440                           
  2441                           ;Config register CONFIG5L @ 0x300008
  2442                           ;	Code Protection bit
  2443                           ;	CP0 = OFF, Block 0 (000800-003FFFh) not code-protected
  2444                           ;	Code Protection bit
  2445                           ;	CP1 = OFF, Block 1 (004000-007FFFh) not code-protected
  2446                           ;	Code Protection bit
  2447                           ;	CP2 = OFF, Block 2 (008000-00BFFFh) not code-protected
  2448                           ;	Code Protection bit
  2449                           ;	CP3 = OFF, Block 3 (00C000-00FFFFh) not code-protected
  2450   300008                     	org	3145736
  2451   300008  0F                 	db	15
  2452                           
  2453                           ;Config register CONFIG5H @ 0x300009
  2454                           ;	Boot Block Code Protection bit
  2455                           ;	CPB = OFF, Boot block (000000-0007FFh) not code-protected
  2456                           ;	Data EEPROM Code Protection bit
  2457                           ;	CPD = OFF, Data EEPROM not code-protected
  2458   300009                     	org	3145737
  2459   300009  C0                 	db	192
  2460                           
  2461                           ;Config register CONFIG6L @ 0x30000A
  2462                           ;	Write Protection bit
  2463                           ;	WRT0 = OFF, Block 0 (000800-003FFFh) not write-protected
  2464                           ;	Write Protection bit
  2465                           ;	WRT1 = OFF, Block 1 (004000-007FFFh) not write-protected
  2466                           ;	Write Protection bit
  2467                           ;	WRT2 = OFF, Block 2 (008000-00BFFFh) not write-protected
  2468                           ;	Write Protection bit
  2469                           ;	WRT3 = OFF, Block 3 (00C000-00FFFFh) not write-protected
  2470   30000A                     	org	3145738
  2471   30000A  0F                 	db	15
  2472                           
  2473                           ;Config register CONFIG6H @ 0x30000B
  2474                           ;	Configuration Register Write Protection bit
  2475                           ;	WRTC = OFF, Configuration registers (300000-3000FFh) not write-protected
  2476                           ;	Boot Block Write Protection bit
  2477                           ;	WRTB = OFF, Boot Block (000000-0007FFh) not write-protected
  2478                           ;	Data EEPROM Write Protection bit
  2479                           ;	WRTD = OFF, Data EEPROM not write-protected
  2480   30000B                     	org	3145739
  2481   30000B  E0                 	db	224
  2482                           
  2483                           ;Config register CONFIG7L @ 0x30000C
  2484                           ;	Table Read Protection bit
  2485                           ;	EBTR0 = OFF, Block 0 (000800-003FFFh) not protected from table reads executed in other
      +                           blocks
  2486                           ;	Table Read Protection bit
  2487                           ;	EBTR1 = OFF, Block 1 (004000-007FFFh) not protected from table reads executed in other
      +                           blocks
  2488                           ;	Table Read Protection bit
  2489                           ;	EBTR2 = OFF, Block 2 (008000-00BFFFh) not protected from table reads executed in other
      +                           blocks
  2490                           ;	Table Read Protection bit
  2491                           ;	EBTR3 = OFF, Block 3 (00C000-00FFFFh) not protected from table reads executed in other
      +                           blocks
  2492   30000C                     	org	3145740
  2493   30000C  0F                 	db	15
  2494                           
  2495                           ;Config register CONFIG7H @ 0x30000D
  2496                           ;	Boot Block Table Read Protection bit
  2497                           ;	EBTRB = OFF, Boot Block (000000-0007FFh) not protected from table reads executed in ot
      +                          her blocks
  2498   30000D                     	org	3145741
  2499   30000D  40                 	db	64
  2500                           tosu	equ	0xFFF
  2501                           tosh	equ	0xFFE
  2502                           tosl	equ	0xFFD
  2503                           stkptr	equ	0xFFC
  2504                           pclatu	equ	0xFFB
  2505                           pclath	equ	0xFFA
  2506                           pcl	equ	0xFF9
  2507                           tblptru	equ	0xFF8
  2508                           tblptrh	equ	0xFF7
  2509                           tblptrl	equ	0xFF6
  2510                           tablat	equ	0xFF5
  2511                           prodh	equ	0xFF4
  2512                           prodl	equ	0xFF3
  2513                           indf0	equ	0xFEF
  2514                           postinc0	equ	0xFEE
  2515                           postdec0	equ	0xFED
  2516                           preinc0	equ	0xFEC
  2517                           plusw0	equ	0xFEB
  2518                           fsr0h	equ	0xFEA
  2519                           fsr0l	equ	0xFE9
  2520                           wreg	equ	0xFE8
  2521                           indf1	equ	0xFE7
  2522                           postinc1	equ	0xFE6
  2523                           postdec1	equ	0xFE5
  2524                           preinc1	equ	0xFE4
  2525                           plusw1	equ	0xFE3
  2526                           fsr1h	equ	0xFE2
  2527                           fsr1l	equ	0xFE1
  2528                           bsr	equ	0xFE0
  2529                           indf2	equ	0xFDF
  2530                           postinc2	equ	0xFDE
  2531                           postdec2	equ	0xFDD
  2532                           preinc2	equ	0xFDC
  2533                           plusw2	equ	0xFDB
  2534                           fsr2h	equ	0xFDA
  2535                           fsr2l	equ	0xFD9
  2536                           status	equ	0xFD8

Data Sizes:
    Strings     3
    Constant    0
    Data        42
    BSS         37
    Persistent  0
    Stack       0

Auto Spaces:
    Space          Size  Autos    Used
    COMRAM          126     16      95
    BANK0           128      0       0
    BANK1           256      0       0
    BANK2           256      0       0
    BANK3           256      0       0
    BANK4           256      0       0
    BANK5           256      0       0
    BANK6           256      0       0
    BANK7           256      0       0
    BANK8           256      0       0
    BANK9           256      0       0
    BANK10          256      0       0
    BANK11          256      0       0
    BANK12          256      0       0
    BANK13          256      0       0
    BANK14          256      0       0
    BANK15          128      0       0

Pointer List with Targets:

    ADC_CALLBACK	PTR FTN()void  size(2) Largest target is 1
		 -> NULL(), 

    ADC_CHANNEL_PIN_CONFIGURE@obj$ADC_CallBack	PTR FTN()void  size(2) Largest target is 0

    ADC_GetConversionRes@obj$ADC_CallBack	PTR FTN()void  size(2) Largest target is 0

    ADC_INIT@obj$ADC_CallBack	PTR FTN()void  size(2) Largest target is 0

    ADC_RESULT_ADJUST@obj$ADC_CallBack	PTR FTN()void  size(2) Largest target is 0

    ADC_SelectChannnel@obj$ADC_CallBack	PTR FTN()void  size(2) Largest target is 0

    ADC_VOLTAGE_REFRECE_CONFIGURE@obj$ADC_CallBack	PTR FTN()void  size(2) Largest target is 0

    f$.$buffer	PTR unsigned char  size(2) Largest target is 0

    f$.$source	PTR const unsigned char  size(2) Largest target is 0

    gpio_pin_direction_initialize@pin_config	PTR const struct . size(1) Largest target is 1
		 -> led_init@pin_obj(COMRAM[1]), relayInit@pinObj(COMRAM[1]), 

    gpio_pin_initialize@pin_config	PTR const struct . size(1) Largest target is 1
		 -> led_init@pin_obj(COMRAM[1]), relayInit@pinObj(COMRAM[1]), 

    gpio_pin_write_logic@pin_config	PTR struct . size(1) Largest target is 1
		 -> led_init@pin_obj(COMRAM[1]), led_off@pin_obj(COMRAM[1]), led_on@pin_obj(COMRAM[1]), relayInit@pinObj(COMRAM[1]), 
		 -> relayOFF@pinObj(COMRAM[1]), relayON@pinObj(COMRAM[1]), 

    Handler	PTR FTN()void  size(2) Largest target is 1
		 -> functionss(), NULL(), 

    INT0_CALBACK	PTR FTN()void  size(2) Largest target is 1
		 -> NULL(), 

    INT1_CALBACK	PTR FTN()void  size(2) Largest target is 1
		 -> NULL(), 

    INT2_CALBACK	PTR FTN()void  size(2) Largest target is 1
		 -> NULL(), 

    interrupt_INTx_CallBack_Init@obj$callback_function	PTR FTN()void  size(2) Largest target is 0

    interrupt_INTx_Clear_Flag@obj$callback_function	PTR FTN()void  size(2) Largest target is 0

    interrupt_INTx_Disable@obj$callback_function	PTR FTN()void  size(2) Largest target is 0

    interrupt_INTx_Edge_Init@obj$callback_function	PTR FTN()void  size(2) Largest target is 0

    interrupt_INTx_Enable@obj$callback_function	PTR FTN()void  size(2) Largest target is 0

    interrupt_INTx_Pin_Init@obj$callback_function	PTR FTN()void  size(2) Largest target is 0

    Interrupt_RBx_Init@obj$callback_function_HIGH	PTR FTN()void  size(2) Largest target is 0

    Interrupt_RBx_Init@obj$callback_function_LOW	PTR FTN()void  size(2) Largest target is 0

    keypadInit@pad$keypadMatrix	PTR unsigned char [6][4] size(2) Largest target is 0

    keypadReadValue@pad$keypadMatrix	PTR unsigned char [6][4] size(2) Largest target is 0

    lat_regs	PTR volatile unsigned char [5] size(2) Largest target is 1
		 -> LATA(BITBIGSFRlllll[1]), LATB(BITBIGSFRllllh[1]), LATC(BITBIGSFRllllh[1]), LATD(BITBIGSFRllllh[1]), 
		 -> LATE(BITBIGSFRllllh[1]), 

    led_init@led	PTR const struct . size(1) Largest target is 1
		 -> led3(COMRAM[1]), 

    modeSelect@obj	PTR const struct . size(1) Largest target is 7
		 -> tt(COMRAM[7]), 

    modeSelect@obj$callBack	PTR FTN()void  size(2) Largest target is 1
		 -> functionss(), 

    port_regs	PTR volatile unsigned char [5] size(2) Largest target is 1
		 -> PORTA(BITBIGSFRlllll[1]), PORTB(BITBIGSFRlllll[1]), PORTC(BITBIGSFRlllll[1]), PORTD(BITBIGSFRlllll[1]), 
		 -> PORTE(BITBIGSFRlllll[1]), 

    preScalerConfig@obj	PTR const struct . size(1) Largest target is 7
		 -> tt(COMRAM[7]), 

    preScalerConfig@obj$callBack	PTR FTN()void  size(2) Largest target is 1
		 -> functionss(), 

    RB4_CallBack_HIGH	PTR FTN()void  size(2) Largest target is 1
		 -> NULL(), 

    RB4_CallBack_LOW	PTR FTN()void  size(2) Largest target is 1
		 -> NULL(), 

    RB5_CallBack_HIGH	PTR FTN()void  size(2) Largest target is 1
		 -> NULL(), 

    RB5_CallBack_LOW	PTR FTN()void  size(2) Largest target is 1
		 -> NULL(), 

    RB6_CallBack_HIGH	PTR FTN()void  size(2) Largest target is 1
		 -> NULL(), 

    RB6_CallBack_LOW	PTR FTN()void  size(2) Largest target is 1
		 -> NULL(), 

    RB7_CallBack_HIGH	PTR FTN()void  size(2) Largest target is 1
		 -> NULL(), 

    RB7_CallBack_LOW	PTR FTN()void  size(2) Largest target is 1
		 -> NULL(), 

    regSelectSize@obj	PTR const struct . size(1) Largest target is 7
		 -> tt(COMRAM[7]), 

    regSelectSize@obj$callBack	PTR FTN()void  size(2) Largest target is 1
		 -> functionss(), 

    S1393$callback_function	PTR FTN()void  size(2) Largest target is 0

    S1431$callback_function_HIGH	PTR FTN()void  size(2) Largest target is 0

    S1431$callback_function_LOW	PTR FTN()void  size(2) Largest target is 0

    S151$keypadMatrix	PTR unsigned char [6][4] size(2) Largest target is 0

    S1865$callBack	PTR FTN()void  size(2) Largest target is 1
		 -> functionss(), 

    S2520$buffer	PTR unsigned char  size(2) Largest target is 0

    S2520$source	PTR const unsigned char  size(2) Largest target is 0

    S688$ADC_CallBack	PTR FTN()void  size(2) Largest target is 0

    sp__memset	PTR void  size(2) Largest target is 0

    timer0_Init@obj	PTR const struct . size(1) Largest target is 7
		 -> tt(COMRAM[7]), 

    timer0_Init@obj$callBack	PTR FTN()void  size(2) Largest target is 1
		 -> functionss(), 

    tris_regs	PTR volatile unsigned char [5] size(2) Largest target is 1
		 -> TRISA(BITBIGSFRlllll[1]), TRISB(ABS[1]), TRISC(ABS[1]), TRISD(ABS[1]), 
		 -> TRISE(ABS[1]), 

    tt$callBack	PTR FTN()void  size(2) Largest target is 1
		 -> functionss(), 

    vfprintf$0	PTR struct _IO_FILE size(1) Largest target is 12
		 -> sprintf@f(COMRAM[12]), 

    vfprintf$1	PTR const unsigned char  size(1) Largest target is 3
		 -> STR_1(CODE[3]), STR_2(CODE[3]), STR_3(CODE[3]), 

    vfprintf$2	PTR PTR void  size(1) Largest target is 1
		 -> sprintf@ap(COMRAM[1]), 


Critical Paths under _main in COMRAM

    _main->_led_init
    _timer0_Init->_preScalerConfig
    _led_init->_gpio_pin_initialize
    _gpio_pin_initialize->_gpio_pin_write_logic

Critical Paths under _InterruptManager in COMRAM

    _InterruptManager->_RB4_ISR
    _InterruptManager->_RB5_ISR
    _InterruptManager->_RB6_ISR
    _InterruptManager->_RB7_ISR

Critical Paths under _main in BANK0

    None.

Critical Paths under _InterruptManager in BANK0

    None.

Critical Paths under _main in BANK1

    None.

Critical Paths under _InterruptManager in BANK1

    None.

Critical Paths under _main in BANK2

    None.

Critical Paths under _InterruptManager in BANK2

    None.

Critical Paths under _main in BANK3

    None.

Critical Paths under _InterruptManager in BANK3

    None.

Critical Paths under _main in BANK4

    None.

Critical Paths under _InterruptManager in BANK4

    None.

Critical Paths under _main in BANK5

    None.

Critical Paths under _InterruptManager in BANK5

    None.

Critical Paths under _main in BANK6

    None.

Critical Paths under _InterruptManager in BANK6

    None.

Critical Paths under _main in BANK7

    None.

Critical Paths under _InterruptManager in BANK7

    None.

Critical Paths under _main in BANK8

    None.

Critical Paths under _InterruptManager in BANK8

    None.

Critical Paths under _main in BANK9

    None.

Critical Paths under _InterruptManager in BANK9

    None.

Critical Paths under _main in BANK10

    None.

Critical Paths under _InterruptManager in BANK10

    None.

Critical Paths under _main in BANK11

    None.

Critical Paths under _InterruptManager in BANK11

    None.

Critical Paths under _main in BANK12

    None.

Critical Paths under _InterruptManager in BANK12

    None.

Critical Paths under _main in BANK13

    None.

Critical Paths under _InterruptManager in BANK13

    None.

Critical Paths under _main in BANK14

    None.

Critical Paths under _InterruptManager in BANK14

    None.

Critical Paths under _main in BANK15

    None.

Critical Paths under _InterruptManager in BANK15

    None.

Call Graph Tables:

 ---------------------------------------------------------------------------------
 (Depth) Function   	        Calls       Base Space   Used Autos Params    Refs
 ---------------------------------------------------------------------------------
 (0) _main                                                 0     0      0    6960
                           _led_init
                        _timer0_Init
 ---------------------------------------------------------------------------------
 (1) _timer0_Init                                          4     3      1     686
                                              5 COMRAM     3     2      1
                         _modeSelect
                    _preScalerConfig
                      _regSelectSize
 ---------------------------------------------------------------------------------
 (2) _regSelectSize                                        1     0      1     120
                                              3 COMRAM     1     0      1
 ---------------------------------------------------------------------------------
 (2) _preScalerConfig                                      2     1      1     142
                                              3 COMRAM     2     1      1
 ---------------------------------------------------------------------------------
 (2) _modeSelect                                           1     0      1     164
                                              3 COMRAM     1     0      1
 ---------------------------------------------------------------------------------
 (1) _led_init                                             4     3      1    6274
                                             13 COMRAM     3     2      1
                _gpio_pin_initialize
 ---------------------------------------------------------------------------------
 (2) _gpio_pin_initialize                                  2     1      1    6062
                                             11 COMRAM     2     1      1
      _gpio_pin_direction_initialize
               _gpio_pin_write_logic
 ---------------------------------------------------------------------------------
 (3) _gpio_pin_write_logic                                 8     6      2    4501
                                              3 COMRAM     8     6      2
 ---------------------------------------------------------------------------------
 (3) _gpio_pin_direction_initialize                        7     6      1     385
                                              3 COMRAM     7     6      1
 ---------------------------------------------------------------------------------
 Estimated maximum stack depth 3
 ---------------------------------------------------------------------------------
 (Depth) Function   	        Calls       Base Space   Used Autos Params    Refs
 ---------------------------------------------------------------------------------
 (4) _InterruptManager                                     2     2      0     120
                                              1 COMRAM     2     2      0
                            _ADC_ISR
                           _INT0_ISR
                           _INT1_ISR
                           _INT2_ISR
                            _RB4_ISR
                            _RB5_ISR
                            _RB6_ISR
                            _RB7_ISR
                           _TMR0_ISR
 ---------------------------------------------------------------------------------
 (5) _TMR0_ISR                                             0     0      0       0
                                NULL *
                         _functionss *
 ---------------------------------------------------------------------------------
 (6) _functionss                                           0     0      0       0
 ---------------------------------------------------------------------------------
 (6) NULL(Fake)                                            0     0      0       0
 ---------------------------------------------------------------------------------
 (5) _RB7_ISR                                              1     1      0      30
                                              0 COMRAM     1     1      0
 ---------------------------------------------------------------------------------
 (5) _RB6_ISR                                              1     1      0      30
                                              0 COMRAM     1     1      0
 ---------------------------------------------------------------------------------
 (5) _RB5_ISR                                              1     1      0      30
                                              0 COMRAM     1     1      0
 ---------------------------------------------------------------------------------
 (5) _RB4_ISR                                              1     1      0      30
                                              0 COMRAM     1     1      0
 ---------------------------------------------------------------------------------
 (5) _INT2_ISR                                             0     0      0       0
 ---------------------------------------------------------------------------------
 (5) _INT1_ISR                                             0     0      0       0
 ---------------------------------------------------------------------------------
 (5) _INT0_ISR                                             0     0      0       0
 ---------------------------------------------------------------------------------
 (5) _ADC_ISR                                              0     0      0       0
 ---------------------------------------------------------------------------------
 Estimated maximum stack depth 6
 ---------------------------------------------------------------------------------

 Call Graph Graphs:

 _main (ROOT)
   _led_init
     _gpio_pin_initialize
       _gpio_pin_direction_initialize
       _gpio_pin_write_logic
   _timer0_Init
     _modeSelect
     _preScalerConfig
     _regSelectSize

 _InterruptManager (ROOT)
   _ADC_ISR
   _INT0_ISR
   _INT1_ISR
   _INT2_ISR
   _RB4_ISR
   _RB5_ISR
   _RB6_ISR
   _RB7_ISR
   _TMR0_ISR
     NULL(Fake) *
     _functionss *

 Address spaces:
Name               Size   Autos  Total    Cost      Usage
BIGRAM             F7F      0       0      45        0.0%
EEDATA             400      0       0       0        0.0%
BITBANK14          100      0       0      32        0.0%
BANK14             100      0       0      33        0.0%
BITBANK13          100      0       0      30        0.0%
BANK13             100      0       0      31        0.0%
BITBANK12          100      0       0      28        0.0%
BANK12             100      0       0      29        0.0%
BITBANK11          100      0       0      26        0.0%
BANK11             100      0       0      27        0.0%
BITBANK10          100      0       0      24        0.0%
BANK10             100      0       0      25        0.0%
BITBANK9           100      0       0      22        0.0%
BANK9              100      0       0      23        0.0%
BITBANK8           100      0       0      20        0.0%
BANK8              100      0       0      21        0.0%
BITBANK7           100      0       0      18        0.0%
BANK7              100      0       0      19        0.0%
BITBANK6           100      0       0      16        0.0%
BANK6              100      0       0      17        0.0%
BITBANK5           100      0       0      14        0.0%
BANK5              100      0       0      15        0.0%
BITBANK4           100      0       0      12        0.0%
BANK4              100      0       0      13        0.0%
BITBANK3           100      0       0      10        0.0%
BANK3              100      0       0      11        0.0%
BITBANK2           100      0       0       8        0.0%
BANK2              100      0       0       9        0.0%
BITBANK1           100      0       0       6        0.0%
BANK1              100      0       0       7        0.0%
BITBANK15           80      0       0      34        0.0%
BANK15              80      0       0      35        0.0%
BITBANK0            80      0       0       4        0.0%
BANK0               80      0       0       5        0.0%
BITCOMRAM           7E      0       0       0        0.0%
COMRAM              7E     10      5F       1       75.4%
BITBIGSFRhlhlh      18      0       0      37        0.0%
BITBIGSFRllhh       15      0       0      39        0.0%
BITBIGSFRhlhll      10      0       0      38        0.0%
BITBIGSFRhh          D      0       0      36        0.0%
BITBIGSFRllhll       7      0       0      40        0.0%
BITBIGSFRlllhh       6      0       0      41        0.0%
BITBIGSFRllllh       4      0       0      42        0.0%
BITBIGSFRlllll       4      0       0      43        0.0%
BIGSFR               0      0       0     200        0.0%
BITSFR               0      0       0     200        0.0%
SFR                  0      0       0     200        0.0%
STACK                0      0       0       2        0.0%
NULL                 0      0       0       0        0.0%
ABS                  0      0      5F      44        0.0%
DATA                 0      0      5F       3        0.0%
CODE                 0      0       0       0        0.0%


Microchip Technology PIC18 Macro Assembler V2.45 build 20230818022343 
Symbol Table                                                                                   Thu Jan 25 20:21:18 2024

                     ??_InterruptManager 0051                                       _tt 0023  
                      ??_preScalerConfig 0054                                      l280 1600  
                                    l522 14F0                                      l284 1654  
                                    l551 16E4                                      l539 13EA  
                                    l901 15EA                                      l908 171E  
                                    l836 17C6                                      l837 17C6  
                                    l864 1506                                      l890 16A6  
                                    l866 1574                                      l895 15CC  
          gpio_pin_initialize@pin_config 005B                          __end_of_ADC_ISR 17F8  
                                    tosl 0FFD                                      wreg 0FE8  
                            led_on@F3058 004E                            fp__functionss 0000  
                        __end_of_RB4_ISR 17E8                          __end_of_RB5_ISR 17E4  
                        __end_of_RB6_ISR 17E0                          __end_of_RB7_ISR 17DC  
                           _ADC_CALLBACK 0047                                     l3401 1656  
                                   l3251 135E                                     l3243 12DC  
                                   l3411 1576                                     l3403 166E  
                                   l3253 13AA                                     l3261 13E8  
                                   l3245 12F0                                     l3501 15EC  
                                   l3421 15C6                                     l3413 158E  
                                   l3405 1670                                     l3271 1400  
                                   l3247 12F8                                     l3511 164C  
                                   l3503 15FC                                     l3415 1590  
                                   l3423 15D0                                     l3407 168C  
                                   l3431 1704                                     l3273 1408  
                                   l3281 14AE                                     l3249 134A  
                                   l3505 1604                                     l3425 15E8  
                                   l3417 15A8                                     l3409 16A4  
                                   l3433 171C                                     l3521 1520  
                                   l4091 14D8                                     l3275 145E  
                                   l3283 14EE                                     l3259 13BE  
                                   l3291 16A8                                     l3507 163A  
                                   l3419 15AE                                     l3427 16E6  
                                   l3531 1560                                     l3523 153C  
                                   l3515 14F2                                     l3269 13EC  
                                   l3293 16BC                                     l3509 163C  
                                   l3429 16FE                                     l3533 156E  
                                   l3525 154A                                     l3517 1502  
                                   l4077 17B6                                     l3295 16C4  
                                   l3535 1570                                     l3527 155C  
                                   l3519 1508                                     l4079 17BE  
                                   l4089 13D2                                     l3297 16E2  
                                   l3537 1572                                     l3529 155E  
                                   STR_1 1001                                     u2010 1400  
                                   u2011 13FC                                     u2005 13B8  
                                   u2006 13BA                                     u2040 14C4  
                                   u2024 1426                                     u2200 15A8  
                                   u2041 14BE                                     u2025 1422  
                                   u2201 15A4                                     u2050 14C6  
                                   u2034 147C                                     u2210 15C6  
                                   u2035 1478                                     u2211 15C2  
                                   u2060 16BC                                     u2220 15E8  
                                   u2061 16B8                                     u2221 15E4  
                                   _LATA 0F89                                     u2230 16FE  
                                   _LATB 0F8A                                     u2231 16FA  
                                   _LATC 0F8B                                     u2320 15FC  
                                   u2240 171C                                     _LATD 0F8C  
                                   u2321 15F8                                     u2241 1718  
                                   _LATE 0F8D                                     u2170 166E  
                                   u2171 166A                                     u2180 16A4  
                                   u2340 1502                                     u2181 16A0  
                                   u2341 14FE                                     u2190 158E  
                                   u2335 164A                                     u2191 158A  
                                   u2337 164C                                     u1960 12F0  
                                   u1961 12EC                                     u1974 1316  
                                   u1975 1312                                     u1985 1358  
                                   u1994 137C                                     u1986 135A  
                                   u1995 1378                                     _led3 002A  
                                   _flag 002F                                     _main 17B6  
                                   fsr2h 0FDA                                     indf2 0FDF  
                                   fsr1l 0FE1                                     fsr2l 0FD9  
                                   btemp 0060                                     prodl 0FF3  
                                   start 000E                              led_init@led 005D  
                           ___param_bank 0000                     _gpio_pin_write_logic 12DC  
                       __end_of_INT0_ISR 17F4                         __end_of_INT1_ISR 17F0  
                       __end_of_INT2_ISR 17EC                                    ?_main 0050  
                                  _EEADR 0FA9                             led_off@F3063 004D  
                                  i2l623 17F2                                    i2l631 17EA  
                                  i2l449 17F6                                    i2l627 17EE  
                                  i2l652 17DE                                    i2l645 17E2  
                                  i2l638 17E6                                    i2l816 12D0  
                                  i2l659 17DA                                    i2l829 17D6  
                                  i2l861 178A                                    _TMR0H 0FD7  
                                  _TMR0L 0FD6                                    _PORTA 0F80  
                                  _PORTB 0F81                                    _PORTC 0F82  
                                  _PORTD 0F83                                    _PORTE 0F84  
                                  _TRISA 0F92                                    _TRISB 0F93  
                                  _TRISC 0F94                                    _TRISD 0F95  
                                  _TRISE 0F96                         __end_of_TMR0_ISR 178C  
                                  pclath 0FFA                                    pclatu 0FFB  
                                  tablat 0FF5                                    ttemp5 0061  
                                  ttemp6 0064                                    ttemp7 0068  
                                  status 0FD8                                    wtemp8 0061  
         ?_gpio_pin_direction_initialize 0053                          __initialization 1720  
                           __end_of_main 17CE                    ?_gpio_pin_write_logic 0053  
                              ??_ADC_ISR 0050                                   ??_main 0060  
                          __activetblptr 0003                                ??_RB4_ISR 0050  
                              ??_RB5_ISR 0050                                ??_RB6_ISR 0050  
                              ??_RB7_ISR 0050                        _RB6_CallBack_HIGH 003B  
                                 _ADRESH 0FC4                                   _EEADRH 0FAA  
                                 _ADRESL 0FC3                                   _EEDATA 0FA8  
                                 _EECON2 0FA7                                   i2l3101 10C2  
                                 i2l3103 10D0                                   i2l3111 10F8  
                                 i2l3121 1136                                   i2l3113 1106  
                                 i2l3105 10DE                                   i2l3131 1176  
                                 i2l3115 1114                                   i2l3123 113C  
                                 i2l3107 10EE                                   i2l3141 11AA  
                                 i2l3133 117A                                   i2l3125 114A  
                                 i2l3117 1122                                   i2l3109 10F2  
                                 i2l3151 11E0                                   i2l3143 11BA  
                                 i2l3127 1158                                   i2l3135 1180  
                                 i2l3119 1132                                   i2l3071 101E  
                                 i2l3161 1216                                   i2l3153 11EE  
                                 i2l3145 11BE                                   i2l3137 118E  
                                 i2l3129 1166                                   i2l3081 1050  
                                 i2l3073 102C                                   i2l3163 1224  
                                 i2l3171 124C                                   i2l3155 11FE  
                                 i2l3139 119C                                   i2l3147 11C4  
                                 i2l3091 108C                                   i2l3083 105E  
                                 i2l3075 1030                                   i2l3181 128A  
                                 i2l3173 125A                                   i2l3165 1232  
                                 i2l3157 1202                                   i2l3149 11D2  
                                 i2l3093 109A                                   i2l3085 106C  
                                 i2l3077 103E                                   i2l3069 1010  
                                 i2l3191 12BE                                   i2l3175 1268  
                                 i2l3183 1290                                   i2l3167 1242  
                                 i2l3159 1208                                   i2l3095 10AA  
                                 i2l3087 1070                                   i2l3079 104C  
                                 i2l3193 12CC                                   i2l3185 129E  
                                 i2l3177 1276                                   i2l3169 1246  
                                 i2l3097 10AE                                   i2l3089 107E  
                                 i2l1755 17CE                                   i2l3187 12AC  
                                 i2l3179 1286                                   i2l3099 10B4  
                                 i2l1925 17F4                                   i2l1933 17EC  
                                 i2l1941 17E4                                   i2l1757 17D2  
                                 i2l3189 12B0                                   i2l1951 17E0  
                                 i2l1929 17F0                                   i2l1937 17E8  
                                 i2l1961 17DC                                   i2l1971 17D8  
                                 i2l1981 1756                                   i2l1983 1758  
                                 i2l1985 175C                                   i2l1987 1760  
                                 i2l1989 1772                         __end_of_led_init 1656  
                           ?_timer0_Init 0055                                   clear_0 1746  
                                 isa$std 0001                            relayOFF@F3056 0049  
                          led_init@F3053 004F                             __pdataCOMRAM 0001  
                           __mediumconst 0000                                   tblptrh 0FF7  
                                 tblptrl 0FF6                                   tblptru 0FF8  
                     _timer0PreloadValue 002B                               __accesstop 0080  
                __end_of__initialization 174C                                ?_INT0_ISR 0050  
                              ?_INT1_ISR 0050                                ?_INT2_ISR 0050  
                          ___rparam_used 0001                          _preScalerConfig 1656  
                 ??_gpio_pin_write_logic 0055                           __pcstackCOMRAM 0050  
                              ?_TMR0_ISR 0050                         regSelectSize@obj 0053  
                       _RB4_CallBack_LOW 0037                               ??_INT0_ISR 0050  
                             ??_INT1_ISR 0050                               ??_INT2_ISR 0050  
                          _regSelectSize 16E6                               ??_TMR0_ISR 0050  
                                _ADC_ISR 17F4                          led_toggle@F3068 004C  
                                _RB4_ISR 17E4                                  _RB5_ISR 17E0  
                                _RB6_ISR 17DC                                  _RB7_ISR 17D8  
                                i2u45_40 1772                                  i2u45_41 176E  
                                i2u46_48 1778                                  i2u46_49 178A  
                              ?_led_init 005D                  __end_of_preScalerConfig 16A8  
                         ?_regSelectSize 0053                                  _Handler 002D  
                                __Hparam 0000                                  __Lparam 0000  
                    _gpio_pin_initialize 16A8                             __psmallconst 1000  
                                __pcinit 1720                                  __ramtop 1000  
                             _modeSelect 1576                                  __ptext0 17B6  
                                __ptext1 14F2                                  __ptext2 16E6  
                                __ptext3 1656                                  __ptext4 1576  
                                __ptext5 15EC                                  __ptext6 16A8  
                                __ptext7 12DC                                  __ptext8 13EC  
                              _T0CONbits 0FD5                               _functionss 17CE  
        ??_gpio_pin_direction_initialize 0054                     ?_gpio_pin_initialize 005B  
                      _RB7_CallBack_HIGH 0039                           __pintcode_body 1006  
                             ??_led_init 005E                     end_of_initialization 174C  
                       _RB5_CallBack_LOW 0035                                  int_func 1006  
                                postdec1 0FE5                                  postdec2 0FDD  
                                postinc0 0FEE                                  postinc2 0FDE  
                           _INT0_CALBACK 0045                                _PORTBbits 0F81  
                           _INT1_CALBACK 0043                         _InterruptManager 0008  
                           _INT2_CALBACK 0041                    ??_gpio_pin_initialize 005C  
                        ??_regSelectSize 0054                         ?_preScalerConfig 0053  
                             RB4_ISR@src 0050                               RB5_ISR@src 0050  
                             RB6_ISR@src 0050                               RB7_ISR@src 0050  
                          __pidataCOMRAM 178C                              ?_modeSelect 0053  
                         timer0_Init@obj 0055                              ?_functionss 0050  
                    start_initialization 1720    __end_of_gpio_pin_direction_initialize 14F2  
          _gpio_pin_direction_initialize 13EC                         _RB6_CallBack_LOW 0033  
                               ?_ADC_ISR 0050                             relayON@F3051 004A  
                               ?_RB4_ISR 0050                                 ?_RB5_ISR 0050  
                               ?_RB6_ISR 0050                                 ?_RB7_ISR 0050  
                      _RB4_CallBack_HIGH 003F                              __pbssCOMRAM 002B  
         gpio_pin_write_logic@pin_config 0053                                __pintcode 0008  
              gpio_pin_write_logic@logic 0054                              __smallconst 1000  
                         relayInit@F3046 004B                                 _INT0_ISR 17F0  
                               _INT1_ISR 17EC                                 _INT2_ISR 17E8  
                               _RB4_Flag 0022                         _RB7_CallBack_LOW 0031  
                               _RB5_Flag 0021                                 _RB6_Flag 0020  
                               _RB7_Flag 001F                 __end_of_InterruptManager 12DC  
                               _PIE1bits 0F9D                                 i2u150_40 101E  
                               i2u150_41 101A                                 i2u151_40 102C  
                               i2u151_41 1028                                 i2u160_40 10C2  
                               i2u152_40 103E                                 i2u160_41 10BE  
                               i2u152_41 103A                                 i2u161_40 10D0  
                               i2u153_40 104C                                 i2u161_41 10CC  
                               i2u153_41 1048                                 i2u170_40 1166  
                               i2u162_40 10DE                                 i2u154_40 105E  
                               i2u170_41 1162                                 i2u162_41 10DA  
                               i2u154_41 105A                                 i2u171_40 1176  
                               i2u163_40 10EE                                 i2u155_40 106C  
                               i2u171_41 1172                                 i2u163_41 10EA  
                               i2u155_41 1068                                 i2u180_40 1216  
                               i2u172_40 118E                                 i2u164_40 1106  
                               i2u156_40 107E                                 i2u180_41 1212  
                               i2u172_41 118A                                 i2u164_41 1102  
                               i2u156_41 107A                                 i2u181_40 1224  
                               i2u173_40 119C                                 i2u165_40 1114  
                               i2u157_40 108C                                 i2u181_41 1220  
                               i2u173_41 1198                                 i2u165_41 1110  
                               i2u157_41 1088                                 i2u190_40 12BE  
                               i2u182_40 1232                                 i2u174_40 11AA  
                               i2u166_40 1122                                 i2u158_40 109A  
                               i2u190_41 12BA                                 i2u182_41 122E  
                               i2u174_41 11A6                                 i2u166_41 111E  
                               i2u158_41 1096                                 i2u191_40 12CC  
                               i2u183_40 1242                                 i2u175_40 11BA  
                               i2u167_40 1132                                 i2u159_40 10AA  
                               i2u191_41 12C8                                 i2u183_41 123E  
                               i2u175_41 11B6                                 i2u167_41 112E  
                               i2u159_41 10A6                                 i2u184_40 125A  
                               i2u176_40 11D2                                 i2u168_40 114A  
                               i2u184_41 1256                                 i2u176_41 11CE  
                               i2u168_41 1146                                 i2u185_40 1268  
                               i2u177_40 11E0                                 i2u169_40 1158  
                               i2u185_41 1264                                 i2u177_41 11DC  
                               i2u169_41 1154                                 _PIR1bits 0F9E  
                               i2u186_40 1276                                 i2u178_40 11EE  
                               i2u186_41 1272                                 i2u178_41 11EA  
                               i2u187_40 1286                                 i2u179_40 11FE  
                               i2u187_41 1282                                 i2u179_41 11FA  
                               i2u188_40 129E                                 i2u188_41 129A  
                               i2u189_40 12AC                                 i2u189_41 12A8  
                          ??_timer0_Init 0056         gpio_pin_direction_initialize@ret 0059  
                               _TMR0_ISR 1756                                _port_regs 0001  
                             _ADCON0bits 0FC2                               _ADCON1bits 0FC1  
                             _ADCON2bits 0FC0  gpio_pin_direction_initialize@pin_config 0053  
                              _tris_regs 0015                   gpio_pin_initialize@ret 005C  
                gpio_pin_write_logic@ret 005A                              _INTCON2bits 0FF1  
                            _INTCON3bits 0FF0                                copy_data0 1734  
                             _EECON1bits 0FA6                                 __Hrparam 0000  
                               __Lrparam 0000                             ??_modeSelect 0054  
            __end_of_gpio_pin_initialize 16E6                      __end_of_timer0_Init 1576  
                           ??_functionss 0050                       preScalerConfig@obj 0053  
                               __ptext10 1756                                 __ptext11 17CE  
                               __ptext20 0000                                 __ptext12 17D8  
                               __ptext13 17DC                                 __ptext14 17E0  
                               __ptext15 17E4                                 __ptext16 17E8  
                               __ptext17 17EC                                 __ptext18 17F0  
                               __ptext19 17F4                                 _led_init 15EC  
                               _lat_regs 000B                    __end_of_regSelectSize 1720  
                     __end_of_modeSelect 15EC                       __end_of_functionss 17D8  
                               isa$xinst 0000                                 int$flags 0060  
                             _INTCONbits 0FF2                        _RB5_CallBack_HIGH 003D  
           __end_of_gpio_pin_write_logic 13EC                                 intlevel2 0000  
                            _timer0_Init 14F2                            modeSelect@obj 0053  
                        led_init@pin_obj 005F                        ?_InterruptManager 0050  
